(lp0
(lp1
copenvoronoi
Point
p2
(F-0.5170870448647804
F0.4913455028026006
tp3
Rp4
ag2
(F0.37303364356652313
F-0.34638470564456525
tp5
Rp6
aa(lp7
g2
(F-0.400788976162598
F-0.11014379509498107
tp8
Rp9
ag2
(F-0.6660369055361731
F-0.39358742007813124
tp10
Rp11
aa(lp12
g2
(F-0.08784020745098975
F-0.005922385033731659
tp13
Rp14
ag2
(F-0.37747559045401125
F-0.38061218704111593
tp15
Rp16
aa(lp17
g2
(F0.31322625305842844
F0.29867026496463955
tp18
Rp19
ag2
(F0.6172201970218678
F-0.11015733706849462
tp20
Rp21
aa(lp22
g2
(F0.5409069902993233
F0.48959708439987315
tp23
Rp24
ag2
(F0.007472450724816948
F0.12586820032075363
tp25
Rp26
aa(lp27
g2
(F0.029611394163141624
F-0.15096009241581954
tp28
Rp29
ag2
(F-0.014575563142595227
F-0.6652814660378519
tp30
Rp31
aa(lp32
g2
(F0.38257749328447144
F0.056027532904294075
tp33
Rp34
ag2
(F0.5095266917338452
F-0.37876015202055974
tp35
Rp36
aa(lp37
g2
(F0.006675749058638991
F-0.02131911073879067
tp38
Rp39
ag2
(F-0.20252957440845543
F-0.2176786944732152
tp40
Rp41
aa(lp42
g2
(F-0.6675441792880061
F-0.38239623196548156
tp43
Rp44
ag2
(F-0.4564922153903935
F0.11944570894471318
tp45
Rp46
aa(lp47
g2
(F-0.49997860154502494
F0.3094800935080513
tp48
Rp49
ag2
(F-0.4805107466232278
F0.28935605384616425
tp50
Rp51
aa(lp52
g2
(F-0.148636659890796
F0.10726238922611486
tp53
Rp54
ag2
(F-0.2527966007551498
F0.1851882413736894
tp55
Rp56
aa(lp57
g2
(F-0.2738106673816148
F0.507015935775585
tp58
Rp59
ag2
(F-0.268186330116436
F0.6212476585193294
tp60
Rp61
aa(lp62
g2
(F-0.5594286290038062
F0.23469938726962936
tp63
Rp64
ag2
(F-0.288396791464299
F-0.00028295268624445313
tp65
Rp66
aa(lp67
g2
(F0.36644561982793467
F0.14171668664256898
tp68
Rp69
ag2
(F0.48243377772933305
F-0.1865234560090514
tp70
Rp71
aa(lp72
g2
(F0.46353417244242
F-0.6895963502076652
tp73
Rp74
ag2
(F0.2409984510938713
F-0.5774472657415526
tp75
Rp76
aa(lp77
g2
(F0.5846245972528443
F0.6644163078874086
tp78
Rp79
ag2
(F0.6643925882143804
F-0.5496166918678983
tp80
Rp81
aa(lp82
g2
(F-0.36048585996731325
F-0.6782935538376822
tp83
Rp84
ag2
(F-0.36237907341533937
F-0.6048202018525988
tp85
Rp86
aa(lp87
g2
(F-0.29582300035306736
F0.4132116473158369
tp88
Rp89
ag2
(F-0.00953032473900739
F0.5128631027568042
tp90
Rp91
aa(lp92
g2
(F0.5930602709070245
F-0.29204995783352705
tp93
Rp94
ag2
(F0.5568590320051097
F-0.5067400886356002
tp95
Rp96
aa(lp97
g2
(F0.040590389811494654
F0.0012722541788059427
tp98
Rp99
ag2
(F0.2104909701065174
F-0.08723299789994676
tp100
Rp101
aa(lp102
g2
(F0.27231667087069633
F0.49354797856832455
tp103
Rp104
ag2
(F-0.1815647546711402
F0.28465667175479503
tp105
Rp106
aa(lp107
g2
(F-0.47404699953003676
F0.3251222539560794
tp108
Rp109
ag2
(F-0.6495360034487941
F0.6805493469326582
tp110
Rp111
aa(lp112
g2
(F-0.7014372613053793
F-0.43863431142104997
tp113
Rp114
ag2
(F-0.08658795461885171
F-0.677359261228424
tp115
Rp116
aa(lp117
g2
(F0.18034983107287816
F0.1493798976178079
tp118
Rp119
ag2
(F0.4742315585209995
F-0.4149220345794034
tp120
Rp121
aa(lp122
g2
(F-0.3043647609732549
F0.05987699719369355
tp123
Rp124
ag2
(F-0.32070729459917446
F0.12125196036034014
tp125
Rp126
aa(lp127
g2
(F-0.554174845570392
F0.4349400932871883
tp128
Rp129
ag2
(F-0.5401284213799313
F0.34968584839919736
tp130
Rp131
aa(lp132
g2
(F0.06404561655051988
F0.6575319897316427
tp133
Rp134
ag2
(F0.3692025968342605
F0.6696581014050984
tp135
Rp136
aa(lp137
g2
(F-0.37884818637572876
F0.08633020534338665
tp138
Rp139
ag2
(F-0.46334872863377186
F0.4097933050437472
tp140
Rp141
aa(lp142
g2
(F0.40363345894101554
F-0.43854639789794064
tp143
Rp144
ag2
(F0.17803040316872443
F-0.4728712570635486
tp145
Rp146
aa(lp147
g2
(F0.15027419793273766
F-0.3366054109334302
tp148
Rp149
ag2
(F0.037607223707090576
F-0.5110688625508678
tp150
Rp151
aa(lp152
g2
(F-0.10731083994392077
F0.2296480103471169
tp153
Rp154
ag2
(F0.30200028500300635
F0.34405420333300807
tp155
Rp156
aa(lp157
g2
(F0.0014946221693408202
F0.03695113382448645
tp158
Rp159
ag2
(F-0.4967333228507379
F0.5860755595107143
tp160
Rp161
aa(lp162
g2
(F0.44636721939206536
F0.6016675790853052
tp163
Rp164
ag2
(F0.5972072887512732
F0.4261982577235093
tp165
Rp166
aa(lp167
g2
(F0.10177844350166254
F0.07265777698816955
tp168
Rp169
ag2
(F0.036242353324222765
F0.059454345848629075
tp170
Rp171
aa(lp172
g2
(F-0.05039600596001337
F0.4184764042743152
tp173
Rp174
ag2
(F-0.18012409667286544
F0.3526536802613671
tp175
Rp176
aa(lp177
g2
(F-0.02627554898469786
F-0.23116550279621428
tp178
Rp179
ag2
(F-0.06201568629591059
F-0.5423375282729842
tp180
Rp181
aa(lp182
g2
(F0.5728673131902238
F-0.5428359240037797
tp183
Rp184
ag2
(F0.5004571633577575
F-0.557441023549742
tp185
Rp186
aa(lp187
g2
(F0.6915038253545236
F0.2224308501448854
tp188
Rp189
ag2
(F0.6021903033402662
F0.6628210824125633
tp190
Rp191
aa(lp192
g2
(F0.19569622267969944
F-0.364780835895541
tp193
Rp194
ag2
(F0.25405524250930334
F-0.32013101339721756
tp195
Rp196
aa(lp197
g2
(F0.42930263374070377
F0.19967700340450667
tp198
Rp199
ag2
(F0.4855356895859668
F0.15013343780322264
tp200
Rp201
aa(lp202
g2
(F0.39153129454798896
F0.5887960329752466
tp203
Rp204
ag2
(F-0.2634700292244548
F0.5370653285324563
tp205
Rp206
aa(lp207
g2
(F-0.2569340187289975
F0.049056630833365644
tp208
Rp209
ag2
(F-0.07256966610809679
F0.0022445178054731896
tp210
Rp211
aa(lp212
g2
(F0.3483877085238358
F-0.1659874559295741
tp213
Rp214
ag2
(F0.2579687228911317
F0.12870107696854594
tp215
Rp216
aa(lp217
g2
(F0.6146768463111596
F0.07380932019161646
tp218
Rp219
ag2
(F0.5796259868611804
F-0.032305727787385385
tp220
Rp221
aa(lp222
g2
(F-0.6289097273619995
F0.6539086860906287
tp223
Rp224
ag2
(F-0.23345077300438455
F0.6562173867536685
tp225
Rp226
aa(lp227
g2
(F-0.6941274671024124
F0.3743590441966591
tp228
Rp229
ag2
(F-0.5873876725526893
F0.4484278134155193
tp230
Rp231
aa(lp232
g2
(F-0.5181899203810121
F-0.4125989440342532
tp233
Rp234
ag2
(F-0.4757504914696119
F-0.19391443436322275
tp235
Rp236
aa(lp237
g2
(F0.5325367327120145
F-0.623111447562646
tp238
Rp239
ag2
(F0.21839728944328773
F0.013493410576695064
tp240
Rp241
aa(lp242
g2
(F0.1657767948909903
F-0.2713058363047356
tp243
Rp244
ag2
(F0.07691428651821508
F-0.10266192087364234
tp245
Rp246
aa(lp247
g2
(F-0.0854712857706229
F0.4453836135600129
tp248
Rp249
ag2
(F-0.0815155731325512
F0.47419105483084745
tp250
Rp251
aa(lp252
g2
(F0.010566784915965743
F-0.47490424686176264
tp253
Rp254
ag2
(F0.058028706846303124
F-0.10294434252886375
tp255
Rp256
aa(lp257
g2
(F-0.5608732674361583
F-0.5615111839484139
tp258
Rp259
ag2
(F-0.6327432878262023
F-0.4925656141157423
tp260
Rp261
aa(lp262
g2
(F0.15748477955529683
F-0.1630706960645888
tp263
Rp264
ag2
(F0.2980490348576359
F-0.29178207278635654
tp265
Rp266
aa(lp267
g2
(F-0.25841399663149583
F-0.5132348603001295
tp268
Rp269
ag2
(F-0.19993208136494622
F-0.4608199625812565
tp270
Rp271
aa(lp272
g2
(F-0.5500017092339862
F0.21807383795730317
tp273
Rp274
ag2
(F-0.5833528232540777
F0.017493085634740835
tp275
Rp276
aa(lp277
g2
(F-0.32722340181111215
F0.7011515249446887
tp278
Rp279
ag2
(F-0.2522427372739294
F0.6661622026040144
tp280
Rp281
aa(lp282
g2
(F0.17325806365000218
F-0.6155023046239911
tp283
Rp284
ag2
(F-0.053786677656268767
F-0.6901713277049264
tp285
Rp286
aa(lp287
g2
(F-0.35621182340362767
F0.5035882961113736
tp288
Rp289
ag2
(F-0.33254828578019896
F0.6124921638135405
tp290
Rp291
aa(lp292
g2
(F0.6659601656930518
F-0.6676636795713475
tp293
Rp294
ag2
(F0.1169733910164743
F-0.5233349968852468
tp295
Rp296
aa(lp297
g2
(F-0.4984352899838169
F-0.36532267823302395
tp298
Rp299
ag2
(F-0.47908544937935693
F-0.3399262249872956
tp300
Rp301
aa(lp302
g2
(F-0.6946036106512257
F-0.5113971308222227
tp303
Rp304
ag2
(F-0.684511519881481
F-0.5131841228745584
tp305
Rp306
aa(lp307
g2
(F0.44828717659687034
F0.11642496072725517
tp308
Rp309
ag2
(F0.49020122797493926
F-0.08050717926681084
tp310
Rp311
aa(lp312
g2
(F0.13153625538824465
F0.669129281404333
tp313
Rp314
ag2
(F0.1073311844660324
F0.6656216716735657
tp315
Rp316
aa(lp317
g2
(F-0.3167685473904481
F-0.39704464867200306
tp318
Rp319
ag2
(F-0.10445990609505718
F-0.5059962434450802
tp320
Rp321
aa(lp322
g2
(F0.23598765890006557
F0.4569736701022884
tp323
Rp324
ag2
(F0.23527128377003437
F0.42062544505204014
tp325
Rp326
aa(lp327
g2
(F-0.14248250481897595
F-0.6930578608292058
tp328
Rp329
ag2
(F0.004633459068257184
F-0.7032413385388484
tp330
Rp331
aa(lp332
g2
(F-0.3979748489300717
F-0.4684931175970112
tp333
Rp334
ag2
(F-0.2516325515841696
F-0.47686850861471947
tp335
Rp336
aa(lp337
g2
(F0.32077839077144543
F0.2913211278022937
tp338
Rp339
ag2
(F0.5854379265677452
F0.09678118055743445
tp340
Rp341
aa(lp342
g2
(F0.49082636014424796
F-0.5163692748732667
tp343
Rp344
ag2
(F0.48251052132226313
F-0.4547005855099925
tp345
Rp346
aa(lp347
g2
(F0.04005049219343071
F-0.45462311955994184
tp348
Rp349
ag2
(F0.05763102198226888
F-0.1276192377727613
tp350
Rp351
aa(lp352
g2
(F-0.5855817608660396
F-0.14944382797947386
tp353
Rp354
ag2
(F-0.6932348911015728
F-0.4078980472040427
tp355
Rp356
aa(lp357
g2
(F-0.10453175224153499
F-0.19797604607694463
tp358
Rp359
ag2
(F-0.07364864273404692
F-0.2936261260741546
tp360
Rp361
aa(lp362
g2
(F0.5934339428898263
F0.6984701773789288
tp363
Rp364
ag2
(F0.20158450531014926
F0.5988388679281662
tp365
Rp366
aa(lp367
g2
(F-0.11158266389111116
F0.6231881882590529
tp368
Rp369
ag2
(F0.46998295510403487
F0.6749051218047726
tp370
Rp371
aa(lp372
g2
(F0.6510489306772638
F-0.3198342241326157
tp373
Rp374
ag2
(F0.5932532263975114
F0.6856925207573081
tp375
Rp376
aa(lp377
g2
(F0.5753753756245243
F0.6929265902072703
tp378
Rp379
ag2
(F0.2525062042380133
F0.46885462152572677
tp380
Rp381
aa(lp382
g2
(F-0.5091646703000732
F-0.5072528449425502
tp383
Rp384
ag2
(F-0.5009511131728949
F-0.3720115636330085
tp385
Rp386
aa(lp387
g2
(F-0.4531497580765787
F-0.03516587503824453
tp388
Rp389
ag2
(F-0.38027731486320376
F-0.05702530883846768
tp390
Rp391
aa(lp392
g2
(F0.5255251039250424
F-0.2799219956096964
tp393
Rp394
ag2
(F0.44794626509012914
F0.09468225853181145
tp395
Rp396
aa(lp397
g2
(F-0.13925854095111845
F-0.05052493164295191
tp398
Rp399
ag2
(F-0.4181546253495782
F-0.30347309414379847
tp400
Rp401
aa(lp402
g2
(F0.1159710777547941
F-0.06870854660070025
tp403
Rp404
ag2
(F0.24586072529470449
F-0.17806998467510637
tp405
Rp406
aa(lp407
g2
(F0.36098599259568753
F-0.16443459971324637
tp408
Rp409
ag2
(F0.4944403556304231
F-0.4401189439096515
tp410
Rp411
aa(lp412
g2
(F0.3582643526902576
F0.551232503576822
tp413
Rp414
ag2
(F0.18810760292135353
F0.4620374142453776
tp415
Rp416
aa(lp417
g2
(F-0.6817773580341666
F0.2020727052296094
tp418
Rp419
ag2
(F-0.631254718737139
F-0.08376048666342206
tp420
Rp421
aa(lp422
g2
(F-0.4580578634124902
F-0.43975425880579855
tp423
Rp424
ag2
(F-0.17497570960849185
F-0.3056588090110015
tp425
Rp426
aa(lp427
g2
(F-0.2087672887222749
F0.3013055763804555
tp428
Rp429
ag2
(F-0.188754566755292
F0.2495732328998137
tp430
Rp431
aa(lp432
g2
(F-0.7039496047499274
F-0.7038763140324549
tp433
Rp434
ag2
(F-0.45389210348237236
F-0.5528468477644868
tp435
Rp436
aa(lp437
g2
(F0.14495022143379288
F-0.6981706315071985
tp438
Rp439
ag2
(F0.2765515537106381
F-0.689406423879395
tp440
Rp441
aa(lp442
g2
(F-0.16450379148292793
F-0.574922275925982
tp443
Rp444
ag2
(F-0.08157314207748245
F-0.5348704757040854
tp445
Rp446
aa(lp447
g2
(F0.2329389608125253
F0.42554804257131074
tp448
Rp449
ag2
(F0.22921907131204855
F0.4071753543668595
tp450
Rp451
aa(lp452
g2
(F0.2887078720282531
F-0.6243021537534729
tp453
Rp454
ag2
(F0.2316712467507751
F-0.6258305814188266
tp455
Rp456
aa(lp457
g2
(F-0.641462679340573
F0.17023155731868989
tp458
Rp459
ag2
(F-0.6028800277735077
F0.290361972890651
tp460
Rp461
aa(lp462
g2
(F-0.6294124683425009
F-0.183356362507075
tp463
Rp464
ag2
(F-0.545010258189301
F0.00575806504029952
tp465
Rp466
aa(lp467
g2
(F0.027579020663471954
F-0.30324021732855216
tp468
Rp469
ag2
(F0.02357725836803304
F-0.25075896387458474
tp470
Rp471
aa(lp472
g2
(F-0.29082886424472565
F0.6378086290937104
tp473
Rp474
ag2
(F0.1768913664548244
F0.6877518998474559
tp475
Rp476
aa(lp477
g2
(F0.5253023975268396
F0.36165082198479404
tp478
Rp479
ag2
(F0.48519944240889656
F0.29589839913167637
tp480
Rp481
aa(lp482
g2
(F0.4172373094972366
F-0.5638829038137233
tp483
Rp484
ag2
(F0.37394450235499543
F-0.5135862680745216
tp485
Rp486
aa(lp487
g2
(F0.3835645245075445
F-0.19108944469544464
tp488
Rp489
ag2
(F0.32874670537983985
F0.1185562332455754
tp490
Rp491
aa(lp492
g2
(F0.4061032114445573
F0.4649635904798699
tp493
Rp494
ag2
(F0.1391311796771264
F0.3469813609546577
tp495
Rp496
aa(lp497
g2
(F-0.25175398033514296
F-0.4017799942952039
tp498
Rp499
ag2
(F-0.10111592767891475
F-0.37658786692707386
tp500
Rp501
aa(lp502
g2
(F-0.5262979683174025
F0.3451123237027245
tp503
Rp504
ag2
(F-0.4815065092601307
F0.233292634264617
tp505
Rp506
aa(lp507
g2
(F-0.3215474892148035
F-0.20196052578698986
tp508
Rp509
ag2
(F-0.4103183515199879
F-0.22213666679699384
tp510
Rp511
aa(lp512
g2
(F-0.17166032512481377
F0.23319486370356923
tp513
Rp514
ag2
(F0.3111749407769395
F0.36842308456512307
tp515
Rp516
aa(lp517
g2
(F-0.4310289960231889
F0.09156143897451774
tp518
Rp519
ag2
(F-0.32883840882771687
F-0.16863865220965069
tp520
Rp521
aa(lp522
g2
(F0.025308511544797963
F-0.6627863336245141
tp523
Rp524
ag2
(F0.03616494742327836
F-0.5980600226176711
tp525
Rp526
aa(lp527
g2
(F-0.691854402276708
F-0.17110445672295638
tp528
Rp529
ag2
(F-0.6109528483765675
F-0.09148291792691565
tp530
Rp531
aa(lp532
g2
(F-0.24391561020408498
F-0.0368051519805912
tp533
Rp534
ag2
(F-0.3406920679255542
F-0.05502159498098713
tp535
Rp536
aa(lp537
g2
(F-0.401786698690712
F0.09402956851894417
tp538
Rp539
ag2
(F-0.3161116431460663
F-0.21084281337358624
tp540
Rp541
aa(lp542
g2
(F-0.006201599381005174
F0.027387275847143844
tp543
Rp544
ag2
(F-0.6158598987515906
F0.6181163743800817
tp545
Rp546
aa(lp547
g2
(F-0.5020548404512698
F-0.36213836398589927
tp548
Rp549
ag2
(F-0.4026328926951916
F-0.20781662454586858
tp550
Rp551
aa(lp552
g2
(F0.14642924399737955
F0.14642186877169294
tp553
Rp554
ag2
(F0.34114816887483745
F0.16919437352247424
tp555
Rp556
aa(lp557
g2
(F0.48461450597774425
F-0.18889911825174988
tp558
Rp559
ag2
(F0.346535805133388
F0.25338003250883334
tp560
Rp561
aa(lp562
g2
(F0.1902797390616081
F-0.016009312839435963
tp563
Rp564
ag2
(F0.32697892160624975
F-0.20674629279614387
tp565
Rp566
aa(lp567
g2
(F-0.5293352148844673
F-0.48570040688511906
tp568
Rp569
ag2
(F-0.5059545752971267
F-0.39081958626785807
tp570
Rp571
aa(lp572
g2
(F-0.22909646035869297
F0.4088480491630022
tp573
Rp574
ag2
(F-0.18318440334228903
F0.3211769802560436
tp575
Rp576
aa(lp577
g2
(F-0.03613521768882477
F0.5270642911996484
tp578
Rp579
ag2
(F-0.34617876599296815
F0.4483041081323149
tp580
Rp581
aa(lp582
g2
(F0.6669742724319492
F-0.05873309588410913
tp583
Rp584
ag2
(F0.671526544170659
F-0.028480522470764935
tp585
Rp586
aa(lp587
g2
(F-0.11359966102338637
F0.16566673727636638
tp588
Rp589
ag2
(F0.06318203881883633
F0.10733315023652124
tp590
Rp591
aa(lp592
g2
(F0.7012635381097858
F-0.32500547982116856
tp593
Rp594
ag2
(F0.6532046688312267
F0.01936712967906351
tp595
Rp596
aa(lp597
g2
(F0.2906984160496082
F-0.20718812820657312
tp598
Rp599
ag2
(F0.2707329770357678
F-0.17958197602909953
tp600
Rp601
aa(lp602
g2
(F0.6139324070685348
F0.3271250920557549
tp603
Rp604
ag2
(F0.6468351502757754
F0.3297935042515474
tp605
Rp606
aa(lp607
g2
(F0.16624941161012452
F-0.05780451925429486
tp608
Rp609
ag2
(F0.1303102998139306
F0.19158084703811173
tp610
Rp611
aa(lp612
g2
(F0.3810920666789166
F0.7062522073511768
tp613
Rp614
ag2
(F0.49826399885616324
F0.6982779826810559
tp615
Rp616
aa(lp617
g2
(F-0.6550673856922582
F0.33409283456228533
tp618
Rp619
ag2
(F-0.6471957590100053
F0.2001117450014095
tp620
Rp621
aa(lp622
g2
(F0.03415750980736065
F-0.5264249584385671
tp623
Rp624
ag2
(F0.21784421847510793
F-0.5186701400956568
tp625
Rp626
aa(lp627
g2
(F0.50424305240985
F-0.17694892810812968
tp628
Rp629
ag2
(F0.5628669596024298
F-0.3324907025184864
tp630
Rp631
aa(lp632
g2
(F-0.2683338002636232
F0.06939639190645186
tp633
Rp634
ag2
(F-0.3202936303666638
F0.03480423807443367
tp635
Rp636
aa(lp637
g2
(F0.16843489952511626
F0.6443925316430121
tp638
Rp639
ag2
(F0.2024434054574311
F0.6317848373504427
tp640
Rp641
aa(lp642
g2
(F-0.4614332596898091
F0.42594909006155146
tp643
Rp644
ag2
(F-0.33364998733745926
F0.16100058697471742
tp645
Rp646
aa(lp647
g2
(F-0.6174159250792028
F0.08811583247502752
tp648
Rp649
ag2
(F-0.6233951934614401
F0.16315566955123517
tp650
Rp651
aa(lp652
g2
(F-0.4530674025067569
F-0.33684576810972017
tp653
Rp654
ag2
(F-0.2588241613021169
F-0.1787370290869651
tp655
Rp656
aa(lp657
g2
(F-0.14394603223234648
F-0.5504791943972569
tp658
Rp659
ag2
(F-0.1631969291103701
F-0.5181015517145443
tp660
Rp661
aa(lp662
g2
(F0.23196423839601754
F0.31447269245821485
tp663
Rp664
ag2
(F0.08065449989780915
F0.23269885835390658
tp665
Rp666
aa(lp667
g2
(F0.2525517156636392
F-0.17263648998591863
tp668
Rp669
ag2
(F0.30667541813648547
F-0.2323494447463652
tp670
Rp671
aa(lp672
g2
(F0.5393567751023094
F0.05340491756192933
tp673
Rp674
ag2
(F0.5690394101482443
F-0.028466945289920553
tp675
Rp676
aa(lp677
g2
(F-0.05558467938748446
F-0.1456835643429496
tp678
Rp679
ag2
(F-0.0024537050957723627
F-0.2311104181538905
tp680
Rp681
aa(lp682
g2
(F-0.03433009475311288
F-0.2754004020379938
tp683
Rp684
ag2
(F-0.23774118119531096
F-0.39047027307932713
tp685
Rp686
aa(lp687
g2
(F0.6020922704341143
F0.16057629841052545
tp688
Rp689
ag2
(F0.48210949226750044
F0.29514784171981234
tp690
Rp691
aa(lp692
g2
(F0.5574294053086866
F-0.06407200741014774
tp693
Rp694
ag2
(F0.5840023327885733
F-0.1264062342711274
tp695
Rp696
aa(lp697
g2
(F0.5169164360601701
F0.19129658425971086
tp698
Rp699
ag2
(F0.3799209629422027
F0.34368274571498825
tp700
Rp701
aa(lp702
g2
(F0.29207845862430115
F0.10598546586515833
tp703
Rp704
ag2
(F0.2959319191998071
F0.11926634087577959
tp705
Rp706
aa(lp707
g2
(F0.40236963926926106
F-0.3879874411922684
tp708
Rp709
ag2
(F0.42123715819950935
F-0.5828709219102353
tp710
Rp711
aa(lp712
g2
(F-0.02971968165707306
F0.48101073314651277
tp713
Rp714
ag2
(F0.19996432654733443
F0.5098983085131765
tp715
Rp716
aa(lp717
g2
(F0.6900097331227304
F-0.32163304000334025
tp718
Rp719
ag2
(F0.6905147660107851
F-0.6027900382170687
tp720
Rp721
aa(lp722
g2
(F-0.020357429515452274
F0.16440789407094725
tp723
Rp724
ag2
(F-0.08871173503186813
F0.16386521650257957
tp725
Rp726
aa(lp727
g2
(F-0.12633634412384487
F0.6560676519795887
tp728
Rp729
ag2
(F-0.5724707277564515
F0.6772814070785289
tp730
Rp731
aa(lp732
g2
(F-0.46857351366532396
F-0.3238751799045822
tp733
Rp734
ag2
(F-0.4619451940056948
F-0.32790577410836746
tp735
Rp736
aa(lp737
g2
(F0.48991821779379086
F-0.0840828461437153
tp738
Rp739
ag2
(F0.6052586796936328
F-0.2530076799713407
tp740
Rp741
aa(lp742
g2
(F0.5225176684072279
F0.3063691469889116
tp743
Rp744
ag2
(F0.6096394043592857
F0.25276767027128444
tp745
Rp746
aa(lp747
g2
(F-0.40493256291230545
F0.567690341854201
tp748
Rp749
ag2
(F-0.48590419744075464
F0.6460922562918747
tp750
Rp751
aa(lp752
g2
(F0.25466824754312123
F0.201483877184094
tp753
Rp754
ag2
(F0.32804240403556517
F0.21789067379545357
tp755
Rp756
aa(lp757
g2
(F0.5826496084013333
F-0.1788347549007835
tp758
Rp759
ag2
(F0.6331036657518168
F-0.22479256207388687
tp760
Rp761
aa(lp762
g2
(F-0.3975790855142757
F0.44140285282085756
tp763
Rp764
ag2
(F-0.46745925475874855
F0.4991675774259243
tp765
Rp766
aa(lp767
g2
(F0.15387597454340485
F-0.26018453938023284
tp768
Rp769
ag2
(F0.1894342978921678
F-0.3757002670883889
tp770
Rp771
aa(lp772
g2
(F-0.7015999608363561
F0.28247534487218495
tp773
Rp774
ag2
(F-0.6765111702998475
F-0.03591751282870759
tp775
Rp776
aa(lp777
g2
(F-0.09699866619764463
F0.345301068056167
tp778
Rp779
ag2
(F0.26114824993194097
F0.5142619123207797
tp780
Rp781
aa(lp782
g2
(F-0.010763753132817522
F0.5415044070356616
tp783
Rp784
ag2
(F0.09664142268218112
F0.5523519291861645
tp785
Rp786
aa(lp787
g2
(F-0.5018040833907487
F0.18415755080633578
tp788
Rp789
ag2
(F-0.5544726631783579
F-0.07775503062612077
tp790
Rp791
aa(lp792
g2
(F-0.47843870941498523
F-0.4175334724118392
tp793
Rp794
ag2
(F-0.2891955509867537
F-0.21891382337990395
tp795
Rp796
aa(lp797
g2
(F-0.06442633114574403
F0.546195106338778
tp798
Rp799
ag2
(F0.13207260468098203
F0.5080397409069166
tp800
Rp801
aa(lp802
g2
(F-0.48156054365143003
F-0.1685930179618248
tp803
Rp804
ag2
(F-0.403835849260022
F-0.09609760864085704
tp805
Rp806
aa(lp807
g2
(F-0.2934977198383417
F0.1400486925299569
tp808
Rp809
ag2
(F-0.12495996497673101
F0.09937979459838131
tp810
Rp811
aa(lp812
g2
(F0.39707635428301113
F-0.40200653719397217
tp813
Rp814
ag2
(F-0.09935823206138217
F0.08882978943907283
tp815
Rp816
aa(lp817
g2
(F-0.4996953361353801
F-0.4907579479757502
tp818
Rp819
ag2
(F-0.3909082420799562
F-0.5299403182155351
tp820
Rp821
aa(lp822
g2
(F0.6590270378502834
F-0.5917066579800013
tp823
Rp824
ag2
(F0.6609576141579303
F-0.6128061743003488
tp825
Rp826
aa(lp827
g2
(F0.6475073370814322
F-0.197737346804978
tp828
Rp829
ag2
(F0.6527446946476831
F0.10996965827142746
tp830
Rp831
aa(lp832
g2
(F0.016104032531228607
F0.07034717717910521
tp833
Rp834
ag2
(F0.12183474908764369
F0.08725112701502957
tp835
Rp836
aa(lp837
g2
(F-0.06735331538651479
F-0.05530790184241552
tp838
Rp839
ag2
(F-0.0639387149897992
F0.00961395455084546
tp840
Rp841
aa(lp842
g2
(F0.18903906705434226
F0.07713694619974976
tp843
Rp844
ag2
(F0.2767568697138516
F-0.12500109495663336
tp845
Rp846
aa(lp847
g2
(F-9.241335350407276e-05
F0.6229833200601997
tp848
Rp849
ag2
(F-0.19669547942478494
F0.606705889079542
tp850
Rp851
aa(lp852
g2
(F-0.5675487218128903
F-0.6578758932368286
tp853
Rp854
ag2
(F-0.39860406871301934
F-0.5632912935581458
tp855
Rp856
aa(lp857
g2
(F0.07510599219447411
F-0.6599904740345784
tp858
Rp859
ag2
(F0.38006457864772725
F-0.6731753747394029
tp860
Rp861
aa(lp862
g2
(F0.4196875975008476
F0.2170149578510665
tp863
Rp864
ag2
(F0.6031140801860915
F0.05358495163696386
tp865
Rp866
aa(lp867
g2
(F0.4684042247203486
F0.57391951240535
tp868
Rp869
ag2
(F0.25972859173803386
F0.41643452329664066
tp870
Rp871
aa(lp872
g2
(F-0.3098996027532072
F0.019020806536313883
tp873
Rp874
ag2
(F-0.5823176452354144
F0.26935027588381444
tp875
Rp876
aa(lp877
g2
(F0.5343613418511113
F0.1107620345879875
tp878
Rp879
ag2
(F0.5364690181096898
F0.06566095652239057
tp880
Rp881
aa(lp882
g2
(F-0.10023789479964396
F-0.45038597075082815
tp883
Rp884
ag2
(F-0.09093308776654929
F-0.4661039731541746
tp885
Rp886
aa(lp887
g2
(F0.504312840591681
F-0.058449641751896375
tp888
Rp889
ag2
(F0.4685157110529927
F0.03942301249364921
tp890
Rp891
aa(lp892
g2
(F0.2543073109991434
F-0.3951853983239405
tp893
Rp894
ag2
(F0.23814917806573022
F-0.4284950140170273
tp895
Rp896
aa(lp897
g2
(F-0.33887510005156096
F0.5896310473643547
tp898
Rp899
ag2
(F-0.4166086388782723
F0.5262010906202463
tp900
Rp901
aa(lp902
g2
(F0.2005263903567457
F-0.06695130079527034
tp903
Rp904
ag2
(F0.14706832863481378
F0.0837808358783313
tp905
Rp906
aa(lp907
g2
(F-0.553286681633924
F-0.43016899777681045
tp908
Rp909
ag2
(F-0.5802739408939581
F-0.39851691694473484
tp910
Rp911
aa(lp912
g2
(F0.018025164158375295
F-0.6269792564904275
tp913
Rp914
ag2
(F0.02575864097647229
F-0.6390654104781671
tp915
Rp916
aa(lp917
g2
(F0.2858123069201104
F-0.468826136505027
tp918
Rp919
ag2
(F0.14057886676515385
F-0.49312625684884637
tp920
Rp921
aa(lp922
g2
(F-0.41069379213427715
F0.43904506602407567
tp923
Rp924
ag2
(F-0.09386427366644812
F0.13732400294043456
tp925
Rp926
aa(lp927
g2
(F0.4632311586603264
F-0.25593261470154743
tp928
Rp929
ag2
(F0.4126043343066781
F-0.10646294070712237
tp930
Rp931
aa(lp932
g2
(F-0.11098385041261616
F-0.44854608614281716
tp933
Rp934
ag2
(F-0.030995208469729696
F-0.6417873935955438
tp935
Rp936
aa(lp937
g2
(F-0.3028817847261249
F-0.18193487838675693
tp938
Rp939
ag2
(F-0.13763582883749315
F0.006236940554069315
tp940
Rp941
aa(lp942
g2
(F0.2430871413066753
F0.002459842999461226
tp943
Rp944
ag2
(F0.34134441516406633
F-0.17232015152320057
tp945
Rp946
aa(lp947
g2
(F-0.6921860419627947
F-0.17936713877380173
tp948
Rp949
ag2
(F-0.6557026567288753
F-0.21282550601251649
tp950
Rp951
aa(lp952
g2
(F-0.3539853297289261
F0.11700346642473392
tp953
Rp954
ag2
(F-0.2676093904118301
F0.17352644064177003
tp955
Rp956
aa(lp957
g2
(F-0.6413215037317338
F0.0021216383948791107
tp958
Rp959
ag2
(F-0.6914113481958624
F0.30384363881153087
tp960
Rp961
aa(lp962
g2
(F-0.4130169963784497
F0.011485286031544417
tp963
Rp964
ag2
(F-0.4119796493724724
F0.0414424216103082
tp965
Rp966
aa(lp967
g2
(F0.4400763175231126
F0.4189964355106839
tp968
Rp969
ag2
(F0.5292383417957838
F0.47943596156050505
tp970
Rp971
aa(lp972
g2
(F0.683023127664341
F0.5984357760702053
tp973
Rp974
ag2
(F0.6690875878777645
F0.52081177988531
tp975
Rp976
aa(lp977
g2
(F0.12593721381761946
F-0.1571104125096564
tp978
Rp979
ag2
(F0.25124830346811833
F-0.27586610317304866
tp980
Rp981
aa(lp982
g2
(F0.3682263691693106
F0.09340785485045688
tp983
Rp984
ag2
(F0.4616861680197222
F-0.3316179606579975
tp985
Rp986
aa(lp987
g2
(F0.49370211898120253
F0.6754022979442462
tp988
Rp989
ag2
(F0.26259190650848374
F0.6751296418762844
tp990
Rp991
aa(lp992
g2
(F0.3285352740563807
F-0.03215607169914181
tp993
Rp994
ag2
(F0.3039717129286419
F0.07712246517668575
tp995
Rp996
aa(lp997
g2
(F0.6185422046137159
F-0.39525749298824975
tp998
Rp999
ag2
(F0.5904228465583492
F-0.6425388180580023
tp1000
Rp1001
aa(lp1002
g2
(F-0.6197986525023337
F-0.08812303475063288
tp1003
Rp1004
ag2
(F-0.6577100535760966
F-0.13737265776204277
tp1005
Rp1006
aa(lp1007
g2
(F-0.5782392371655897
F0.5466173875181604
tp1008
Rp1009
ag2
(F-0.018798015015036418
F0.012515808310454957
tp1010
Rp1011
aa(lp1012
g2
(F-0.6502360784049835
F0.6965044347354536
tp1013
Rp1014
ag2
(F-0.5313034490038113
F0.7067113360860067
tp1015
Rp1016
aa(lp1017
g2
(F0.11816435765005284
F-0.5243867824695996
tp1018
Rp1019
ag2
(F0.027385060185372234
F-0.5402430709850896
tp1020
Rp1021
aa(lp1022
g2
(F-0.07927481479745502
F-0.6674510179270986
tp1023
Rp1024
ag2
(F-0.21050172375165538
F-0.5834243811556213
tp1025
Rp1026
aa(lp1027
g2
(F0.6386879213131407
F-0.3162581916786124
tp1028
Rp1029
ag2
(F0.5769484126152606
F-0.4801495866301444
tp1030
Rp1031
aa(lp1032
g2
(F0.5180075949098
F-0.30724570794159645
tp1033
Rp1034
ag2
(F0.440649438135865
F0.05471905389071996
tp1035
Rp1036
aa(lp1037
g2
(F-0.37089640001651214
F0.6253181601127547
tp1038
Rp1039
ag2
(F0.15491200723463838
F0.6727686756884941
tp1040
Rp1041
aa(lp1042
g2
(F-0.37120265777012174
F0.4725306260999609
tp1043
Rp1044
ag2
(F-0.29230841078747744
F0.4760570729202531
tp1045
Rp1046
aa(lp1047
g2
(F-0.5563529323403178
F0.42601923815241083
tp1048
Rp1049
ag2
(F-0.649957120631976
F0.07768418808574562
tp1050
Rp1051
aa(lp1052
g2
(F-0.43701820267092734
F-0.6711975809044611
tp1053
Rp1054
ag2
(F-0.44184205550703803
F-0.6162902423703889
tp1055
Rp1056
aa(lp1057
g2
(F-0.07638420983655592
F-0.32739406537600185
tp1058
Rp1059
ag2
(F-0.10278911392788281
F-0.43615868388790574
tp1060
Rp1061
aa(lp1062
g2
(F0.37944652112273847
F0.27031686021075363
tp1063
Rp1064
ag2
(F0.6140801799655764
F0.13309428940413592
tp1065
Rp1066
aa(lp1067
g2
(F0.14895544302420682
F0.21526602363586678
tp1068
Rp1069
ag2
(F0.2549975238970943
F0.21507777198819988
tp1070
Rp1071
aa(lp1072
g2
(F0.6191637404415216
F-0.6662545612825701
tp1073
Rp1074
ag2
(F0.4259076006452154
F-0.7007244737471977
tp1075
Rp1076
aa(lp1077
g2
(F-0.47636557819557546
F-0.31826332346204567
tp1078
Rp1079
ag2
(F-0.4023151013574679
F-0.1499375071772473
tp1080
Rp1081
aa(lp1082
g2
(F0.039191541546758524
F-0.7054044077213735
tp1083
Rp1084
ag2
(F-0.2620205954777846
F-0.6786152453481198
tp1085
Rp1086
aa(lp1087
g2
(F0.14153911151215648
F-0.24565240936058003
tp1088
Rp1089
ag2
(F0.08539165229384571
F-0.4299868156871963
tp1090
Rp1091
aa(lp1092
g2
(F-0.5422070313890892
F-0.7002444380676577
tp1093
Rp1094
ag2
(F-0.6592439341554082
F-0.6811414907122533
tp1095
Rp1096
aa(lp1097
g2
(F0.23396301121970087
F0.3487705352159429
tp1098
Rp1099
ag2
(F-0.1088851277738393
F0.28311471145944656
tp1100
Rp1101
aa(lp1102
g2
(F0.001346061505595686
F-0.6438980764311103
tp1103
Rp1104
ag2
(F0.04142409712169415
F-0.23363604127012827
tp1105
Rp1106
aa(lp1107
g2
(F-0.04057015478378223
F0.17179025144806714
tp1108
Rp1109
ag2
(F0.04990340762183221
F0.22752026392705316
tp1110
Rp1111
aa(lp1112
g2
(F0.09165805158106
F0.7012288737915384
tp1113
Rp1114
ag2
(F-0.06775102852397652
F0.6991424973160014
tp1115
Rp1116
aa(lp1117
g2
(F-0.4992796535304567
F-0.46263289430068844
tp1118
Rp1119
ag2
(F-0.1659294673439239
F-0.5646123988406274
tp1120
Rp1121
aa(lp1122
g2
(F-0.515620814428291
F0.5363393451662224
tp1123
Rp1124
ag2
(F-0.21044011887517455
F0.23047581218414648
tp1125
Rp1126
aa(lp1127
g2
(F0.32499863305144383
F0.2395381896501998
tp1128
Rp1129
ag2
(F0.4220707951479292
F-0.06484591608001744
tp1130
Rp1131
aa(lp1132
g2
(F0.38893110590826474
F0.5858777091114675
tp1133
Rp1134
ag2
(F0.4861562595614628
F0.668351665856437
tp1135
Rp1136
aa(lp1137
g2
(F0.24039282367287107
F-0.12027694479904127
tp1138
Rp1139
ag2
(F0.23770294618030907
F-0.12209685916815238
tp1140
Rp1141
aa(lp1142
g2
(F-0.39463427394220424
F-0.10901632862991462
tp1143
Rp1144
ag2
(F-0.47941752272138155
F-0.2469324659699113
tp1145
Rp1146
aa(lp1147
g2
(F-0.7045915316752577
F0.28715702824546774
tp1148
Rp1149
ag2
(F-0.7001688034316313
F0.4740414990685937
tp1150
Rp1151
aa(lp1152
g2
(F-0.06962693466758496
F-0.15121589397780089
tp1153
Rp1154
ag2
(F-0.1330699022074333
F-0.20243964413291116
tp1155
Rp1156
aa(lp1157
g2
(F0.3858054723560185
F-0.6672305244098672
tp1158
Rp1159
ag2
(F0.3498733041130959
F-0.6505392945093417
tp1160
Rp1161
aa(lp1162
g2
(F-0.4704904162893365
F0.5161682771092786
tp1163
Rp1164
ag2
(F-0.48460247690560065
F0.5398498314343103
tp1165
Rp1166
aa(lp1167
g2
(F0.4386903241075497
F-0.29537857582924376
tp1168
Rp1169
ag2
(F0.33343592858995064
F-0.10415141845431741
tp1170
Rp1171
aa(lp1172
g2
(F0.3885167561306935
F0.4065798057981682
tp1173
Rp1174
ag2
(F0.26807622550181076
F0.3069252205241557
tp1175
Rp1176
aa(lp1177
g2
(F0.6880753834461417
F-0.5925011702623236
tp1178
Rp1179
ag2
(F0.6685536211387217
F-0.6504164629128124
tp1180
Rp1181
aa(lp1182
g2
(F0.17131891640569552
F0.4697449022082676
tp1183
Rp1184
ag2
(F-0.1904522592247797
F0.2848277866795015
tp1185
Rp1186
aa(lp1187
g2
(F0.534220704743293
F-0.3454288232517299
tp1188
Rp1189
ag2
(F0.4393139716355281
F0.09357903739336382
tp1190
Rp1191
aa(lp1192
g2
(F0.4090281024755631
F0.45309219318273874
tp1193
Rp1194
ag2
(F0.4536184482149437
F0.4729948851263468
tp1195
Rp1196
aa(lp1197
g2
(F-0.4689523052770721
F0.7028430218654274
tp1198
Rp1199
ag2
(F-0.5435109357905649
F0.6896852361551962
tp1200
Rp1201
aa(lp1202
g2
(F-0.5840161715764846
F-0.6495943297023449
tp1203
Rp1204
ag2
(F-0.6229330025361001
F-0.6721985602275321
tp1205
Rp1206
aa(lp1207
g2
(F-0.002371431768946719
F-0.4763860060611983
tp1208
Rp1209
ag2
(F-0.02688827813186845
F-0.5027437440635223
tp1210
Rp1211
aa(lp1212
g2
(F-0.6699757819647588
F0.6903061137384321
tp1213
Rp1214
ag2
(F-0.6607138399393998
F0.6718232841207643
tp1215
Rp1216
aa(lp1217
g2
(F0.6934672054245596
F-0.04073766717513205
tp1218
Rp1219
ag2
(F0.6507149860075123
F0.3533323664803203
tp1220
Rp1221
aa(lp1222
g2
(F0.2997042284753204
F0.09828893793371352
tp1223
Rp1224
ag2
(F0.34305616487746127
F0.16505911231488635
tp1225
Rp1226
aa(lp1227
g2
(F-0.032515971877161154
F-0.6863426066143653
tp1228
Rp1229
ag2
(F0.25113459467147614
F-0.6830532269354589
tp1230
Rp1231
aa(lp1232
g2
(F-0.23256205500021526
F0.519273733932512
tp1233
Rp1234
ag2
(F-0.3064319288846632
F0.4959013279496425
tp1235
Rp1236
aa(lp1237
g2
(F-0.13220546300414748
F-0.17254675561035826
tp1238
Rp1239
ag2
(F0.018008455653080735
F-0.08226083217749325
tp1240
Rp1241
aa(lp1242
g2
(F-0.5719918805625476
F-0.6908180589193134
tp1243
Rp1244
ag2
(F-0.6044685425848207
F-0.6642365027942633
tp1245
Rp1246
aa(lp1247
g2
(F-0.57977333692164
F-0.6766235928142559
tp1248
Rp1249
ag2
(F-0.4859816739692378
F-0.6638891880054535
tp1250
Rp1251
aa(lp1252
g2
(F-0.6190794709847743
F-0.3778800423464327
tp1253
Rp1254
ag2
(F-0.6514885456662811
F-0.42855991833899143
tp1255
Rp1256
aa(lp1257
g2
(F-0.03254579675649083
F0.5664162579904659
tp1258
Rp1259
ag2
(F0.06367996642791907
F0.600351927353403
tp1260
Rp1261
aa(lp1262
g2
(F0.5206356484024217
F-0.24603025459686423
tp1263
Rp1264
ag2
(F0.544057742542464
F-0.36164317506539545
tp1265
Rp1266
aa(lp1267
g2
(F0.6319297542910385
F-0.30507477134401195
tp1268
Rp1269
ag2
(F0.4874989983819349
F-0.08752847810392439
tp1270
Rp1271
aa(lp1272
g2
(F-0.037095769657588096
F-0.6226151547365918
tp1273
Rp1274
ag2
(F-0.012953028995760452
F-0.6434326813376728
tp1275
Rp1276
aa(lp1277
g2
(F-0.27517924579125447
F0.0602915255378631
tp1278
Rp1279
ag2
(F-0.2154861566383166
F-0.0603692856276834
tp1280
Rp1281
aa(lp1282
g2
(F0.27505766797341713
F-0.08849369129145157
tp1283
Rp1284
ag2
(F0.36239064812010824
F-0.21109287965240314
tp1285
Rp1286
aa(lp1287
g2
(F0.5225873664825571
F-0.03653441317775574
tp1288
Rp1289
ag2
(F0.5374358290845243
F-0.10712460059994589
tp1290
Rp1291
aa(lp1292
g2
(F0.04827314927723936
F0.6928231249457444
tp1293
Rp1294
ag2
(F-0.17818624236045866
F0.7010873155699284
tp1295
Rp1296
aa(lp1297
g2
(F-0.1953661390814183
F-0.2946865643176471
tp1298
Rp1299
ag2
(F-0.1139156272016727
F-0.1662319273363797
tp1300
Rp1301
aa(lp1302
g2
(F0.18782825165420092
F0.3953832698935347
tp1303
Rp1304
ag2
(F-0.0956789420808355
F0.2873058646474067
tp1305
Rp1306
aa(lp1307
g2
(F0.4124991563004927
F0.6785369323612329
tp1308
Rp1309
ag2
(F0.3772437385740557
F0.7019044359288236
tp1310
Rp1311
aa(lp1312
g2
(F0.25912729241275023
F0.14950179195381064
tp1313
Rp1314
ag2
(F0.3357177381595067
F0.028919056324450465
tp1315
Rp1316
aa(lp1317
g2
(F0.5414878013858602
F0.4620513332774683
tp1318
Rp1319
ag2
(F0.3741025949693515
F0.34199264854998424
tp1320
Rp1321
aa(lp1322
g2
(F-0.6762905183087002
F0.6799491410822613
tp1323
Rp1324
ag2
(F-0.7020104083580231
F0.3271411390722847
tp1325
Rp1326
aa(lp1327
g2
(F-0.3845275613217455
F-0.5057383703857972
tp1328
Rp1329
ag2
(F-0.2340811405354027
F-0.5864576309494125
tp1330
Rp1331
aa(lp1332
g2
(F0.5990452953915095
F0.028968744560517568
tp1333
Rp1334
ag2
(F0.5945412410123438
F0.026397391143568316
tp1335
Rp1336
aa(lp1337
g2
(F0.6980183984022104
F0.029272655838491368
tp1338
Rp1339
ag2
(F0.6965641412183159
F-0.037739608845816286
tp1340
Rp1341
aa(lp1342
g2
(F-0.5833504835797779
F0.16883641464397836
tp1343
Rp1344
ag2
(F-0.5899001961754725
F-0.024380386729548675
tp1345
Rp1346
aa(lp1347
g2
(F-0.47802827245773294
F-0.42235386061294206
tp1348
Rp1349
ag2
(F-0.45974616648293
F-0.44918792043141254
tp1350
Rp1351
aa(lp1352
g2
(F0.362083548690159
F-0.32741380182245733
tp1353
Rp1354
ag2
(F0.2581622678671809
F-0.19523849540991067
tp1355
Rp1356
aa(lp1357
g2
(F0.34810644033379234
F0.257542234725479
tp1358
Rp1359
ag2
(F0.5579230338648704
F-0.016030575426107863
tp1360
Rp1361
aa(lp1362
g2
(F-0.28799474880048154
F-0.24299378178012204
tp1363
Rp1364
ag2
(F-0.4504357499981421
F-0.4337145920302916
tp1365
Rp1366
aa(lp1367
g2
(F-0.16485856995237969
F0.28112227393334743
tp1368
Rp1369
ag2
(F0.12261751183904734
F0.42340879550417476
tp1370
Rp1371
aa(lp1372
g2
(F-0.3678432581572152
F-0.4164414000474131
tp1373
Rp1374
ag2
(F-0.48557420551103325
F-0.4626077867446771
tp1375
Rp1376
aa(lp1377
g2
(F-0.6189046749855968
F0.517913516290736
tp1378
Rp1379
ag2
(F-0.6604948420892475
F0.5842817775933917
tp1380
Rp1381
aa(lp1382
g2
(F0.09358371975988111
F0.43565894355717294
tp1383
Rp1384
ag2
(F0.11402420069308616
F0.46631501642374595
tp1385
Rp1386
aa(lp1387
g2
(F0.4746371062205459
F0.2684028871854154
tp1388
Rp1389
ag2
(F0.5743597619843488
F0.1861948110187428
tp1390
Rp1391
aa(lp1392
g2
(F0.07889990721136209
F0.6731152696523099
tp1393
Rp1394
ag2
(F0.3943967747057222
F0.6885796522523235
tp1395
Rp1396
aa(lp1397
g2
(F0.2543458698031792
F-0.1608322424113432
tp1398
Rp1399
ag2
(F0.17986123036702018
F-0.12177324985522053
tp1400
Rp1401
aa(lp1402
g2
(F-0.23621163180406402
F0.099888711451941
tp1403
Rp1404
ag2
(F-0.31264167042184726
F0.13649975081210486
tp1405
Rp1406
aa(lp1407
g2
(F-0.3449835706579741
F0.12957966210562566
tp1408
Rp1409
ag2
(F-0.290400302810486
F0.2125789718392992
tp1410
Rp1411
aa(lp1412
g2
(F-0.21858883720473088
F0.08956843070876475
tp1413
Rp1414
ag2
(F-0.1228368423106232
F0.09868878939762193
tp1415
Rp1416
aa(lp1417
g2
(F0.17534762497171774
F-0.6241618639278713
tp1418
Rp1419
ag2
(F0.1743167107019724
F-0.5483284572224816
tp1420
Rp1421
aa(lp1422
g2
(F0.15760319927785849
F-0.043185606586849556
tp1423
Rp1424
ag2
(F0.14562185850182563
F0.03062408352078927
tp1425
Rp1426
aa(lp1427
g2
(F-0.6563799133645316
F-0.4696049362654735
tp1428
Rp1429
ag2
(F-0.3896562926598813
F-0.5644295053086108
tp1430
Rp1431
aa(lp1432
g2
(F0.5447257429974786
F-0.6840124171070593
tp1433
Rp1434
ag2
(F0.6211722572397429
F-0.6677797901625318
tp1435
Rp1436
aa(lp1437
g2
(F0.5132686583274102
F0.5229826567876132
tp1438
Rp1439
ag2
(F0.10729364287396304
F0.34029596179802213
tp1440
Rp1441
aa(lp1442
g2
(F0.3747526582307785
F-0.10225940999737526
tp1443
Rp1444
ag2
(F0.4711555119542259
F-0.3711452168117269
tp1445
Rp1446
aa(lp1447
g2
(F-0.28367421556942424
F-0.3986874597353998
tp1448
Rp1449
ag2
(F-0.09122717532302671
F-0.2686247795009488
tp1450
Rp1451
aa(lp1452
g2
(F0.6942213950262048
F0.2798684993911831
tp1453
Rp1454
ag2
(F0.630340870862794
F0.5571198084309739
tp1455
Rp1456
aa(lp1457
g2
(F-0.5126333198899156
F0.5916593414491249
tp1458
Rp1459
ag2
(F-0.5335238111104371
F0.6342749995109827
tp1460
Rp1461
aa(lp1462
g2
(F0.31491547809570575
F0.34671591656824474
tp1463
Rp1464
ag2
(F0.5018256405755979
F0.5167323119347449
tp1465
Rp1466
aa(lp1467
g2
(F-0.3997530274392917
F0.35747398126968855
tp1468
Rp1469
ag2
(F-0.3177292085392627
F0.198303605338651
tp1470
Rp1471
aa(lp1472
g2
(F0.13765235609798776
F0.45488125850420813
tp1473
Rp1474
ag2
(F0.20606911716309118
F0.4867926315622544
tp1475
Rp1476
aa(lp1477
g2
(F-0.24020157806916465
F-0.2990949986943075
tp1478
Rp1479
ag2
(F-0.3269371008254945
F-0.3344624650688751
tp1480
Rp1481
aa(lp1482
g2
(F-0.5422964611597849
F-0.4580901103023248
tp1483
Rp1484
ag2
(F-0.5718937120843199
F-0.4191341544319086
tp1485
Rp1486
aa(lp1487
g2
(F0.17986364460832627
F-0.14364235447890672
tp1488
Rp1489
ag2
(F0.10075801674038032
F-0.07421944902407218
tp1490
Rp1491
aa(lp1492
g2
(F-0.2164680088660031
F-0.44613511125136673
tp1493
Rp1494
ag2
(F-0.19091054780736427
F-0.41876139739229307
tp1495
Rp1496
aa(lp1497
g2
(F-0.17850513931316503
F-0.15601182048697515
tp1498
Rp1499
ag2
(F-0.01860742249204106
F-0.035699855497639765
tp1500
Rp1501
aa(lp1502
g2
(F-0.2482217139756675
F0.07948298037200396
tp1503
Rp1504
ag2
(F-0.06697807304943193
F0.05012591197331151
tp1505
Rp1506
aa(lp1507
g2
(F-0.22788697574766437
F0.4069946893819514
tp1508
Rp1509
ag2
(F-0.2073933101244929
F0.3808278791084885
tp1510
Rp1511
aa(lp1512
g2
(F0.6284169617504771
F0.27908482164820547
tp1513
Rp1514
ag2
(F0.6942321892489143
F-0.14804188651513717
tp1515
Rp1516
aa(lp1517
g2
(F0.3824941352900735
F0.56218675121807
tp1518
Rp1519
ag2
(F0.529387360104584
F0.6701465388268804
tp1520
Rp1521
aa(lp1522
g2
(F-0.06362504662586
F-0.3995819055195178
tp1523
Rp1524
ag2
(F-0.07777242875561041
F-0.509114247236634
tp1525
Rp1526
aa(lp1527
g2
(F0.49341880577104713
F0.6457351676248413
tp1528
Rp1529
ag2
(F0.3484864335300726
F0.548435066596193
tp1530
Rp1531
aa(lp1532
g2
(F0.4747442611552173
F0.39042522825555404
tp1533
Rp1534
ag2
(F0.4897725817558767
F0.33688620638560285
tp1535
Rp1536
aa(lp1537
g2
(F0.1690978916496063
F-0.48760664563174916
tp1538
Rp1539
ag2
(F0.15916385490289453
F-0.32837605338578163
tp1540
Rp1541
aa(lp1542
g2
(F-0.4842980857684481
F-0.20417476732380924
tp1543
Rp1544
ag2
(F-0.672089139132577
F-0.44094571202045846
tp1545
Rp1546
aa(lp1547
g2
(F0.5497438536874224
F0.2854996978605967
tp1548
Rp1549
ag2
(F0.5821121830465303
F0.21702583886258364
tp1550
Rp1551
aa(lp1552
g2
(F0.21104477552789358
F-0.21909522261640596
tp1553
Rp1554
ag2
(F0.38050761982328773
F-0.4194862964899278
tp1555
Rp1556
aa(lp1557
g2
(F-0.11475186096344936
F-0.6129661880162838
tp1558
Rp1559
ag2
(F-0.10443557258496894
F-0.5500068331766381
tp1560
Rp1561
aa(lp1562
g2
(F0.07908631572045077
F0.6007978375090395
tp1563
Rp1564
ag2
(F0.24492246070564383
F0.6153482568046327
tp1565
Rp1566
aa(lp1567
g2
(F-0.4847309481408969
F0.26387202755711014
tp1568
Rp1569
ag2
(F-0.4584128160828416
F0.18963757603008435
tp1570
Rp1571
aa(lp1572
g2
(F-0.5651693764894153
F-0.1712664619237364
tp1573
Rp1574
ag2
(F-0.4678724301608779
F-0.15059641308114546
tp1575
Rp1576
aa(lp1577
g2
(F-0.4254343139162557
F0.1618367347733557
tp1578
Rp1579
ag2
(F-0.4418159143867274
F0.3189949976315365
tp1580
Rp1581
aa(lp1582
g2
(F0.04491384781646601
F0.24330932037356479
tp1583
Rp1584
ag2
(F-0.09086078635001749
F0.20199413117472742
tp1585
Rp1586
aa(lp1587
g2
(F0.35551735669642137
F0.07147514071792815
tp1588
Rp1589
ag2
(F0.4210572447651728
F-0.1717216516768496
tp1590
Rp1591
aa(lp1592
g2
(F-0.17468740083185796
F0.3404582020895526
tp1593
Rp1594
ag2
(F-0.20492163327543356
F0.39446556762144125
tp1595
Rp1596
aa(lp1597
g2
(F-0.5036072771415857
F-0.5426984951230731
tp1598
Rp1599
ag2
(F-0.5444176372542104
F-0.5474662734075425
tp1600
Rp1601
aa(lp1602
g2
(F0.19898010726216975
F-0.1576978408614058
tp1603
Rp1604
ag2
(F0.15147328077304245
F-0.10216943800456202
tp1605
Rp1606
aa(lp1607
g2
(F-0.697076104954268
F-0.38335722468765016
tp1608
Rp1609
ag2
(F-0.6950964789414383
F-0.11272771582115182
tp1610
Rp1611
aa(lp1612
g2
(F-0.09690340113798979
F-0.4534627218143982
tp1613
Rp1614
ag2
(F-0.08008020259503867
F-0.3989889284894292
tp1615
Rp1616
aa(lp1617
g2
(F-0.2440320051696474
F0.6011511199892181
tp1618
Rp1619
ag2
(F0.005290256345925171
F0.6577687702101098
tp1620
Rp1621
aa(lp1622
g2
(F-0.3999040010926861
F0.4981566009030738
tp1623
Rp1624
ag2
(F-0.40991558341272655
F0.5166266167737485
tp1625
Rp1626
aa(lp1627
g2
(F0.4217046106413507
F-0.3598710617993569
tp1628
Rp1629
ag2
(F0.43562698678247913
F-0.3764075406644627
tp1630
Rp1631
aa(lp1632
g2
(F0.6424793394942081
F-0.3566121841671094
tp1633
Rp1634
ag2
(F0.6249526035348352
F-0.46196082428043617
tp1635
Rp1636
aa(lp1637
g2
(F0.5054846247302671
F-0.09821724516567187
tp1638
Rp1639
ag2
(F0.5560517043970465
F-0.1750376801428002
tp1640
Rp1641
aa(lp1642
g2
(F0.4004321716440673
F-0.5831487366808674
tp1643
Rp1644
ag2
(F0.3388522431633221
F-0.463860488076983
tp1645
Rp1646
aa(lp1647
g2
(F-0.10021604789253347
F-0.37935148889016507
tp1648
Rp1649
ag2
(F-0.17119560416454183
F-0.4166567064016247
tp1650
Rp1651
aa(lp1652
g2
(F-0.2865897728816101
F0.5132112466911458
tp1653
Rp1654
ag2
(F-0.28074571289588046
F0.5774332369504798
tp1655
Rp1656
aa(lp1657
g2
(F0.36996624364384734
F-0.4320133756483028
tp1658
Rp1659
ag2
(F0.28290588125155136
F-0.3041798068992056
tp1660
Rp1661
aa(lp1662
g2
(F0.03142684093121195
F-0.1044927363954885
tp1663
Rp1664
ag2
(F-0.03019253503939523
F-0.4592809680585118
tp1665
Rp1666
aa(lp1667
g2
(F0.312423869003968
F-0.6967820295162644
tp1668
Rp1669
ag2
(F0.4430397545424414
F-0.6855293894872047
tp1670
Rp1671
aa(lp1672
g2
(F-0.6902140319240551
F-0.625360795251178
tp1673
Rp1674
ag2
(F-0.6354002436559655
F-0.6487688729667258
tp1675
Rp1676
aa(lp1677
g2
(F0.4304278834283719
F-0.32435133025397955
tp1678
Rp1679
ag2
(F0.26026166564104214
F-0.0031011885061025257
tp1680
Rp1681
aa(lp1682
g2
(F-0.1568826438580747
F0.41258758740221557
tp1683
Rp1684
ag2
(F0.2603137632582283
F0.5230900458154475
tp1685
Rp1686
aa(lp1687
g2
(F-0.19731241842939717
F-0.3117553106978019
tp1688
Rp1689
ag2
(F-0.2372220719147794
F-0.24999475203488686
tp1690
Rp1691
aa(lp1692
g2
(F0.04781034547586449
F-0.5922906640004248
tp1693
Rp1694
ag2
(F0.04635658321601566
F-0.5636934480445938
tp1695
Rp1696
aa(lp1697
g2
(F-0.6236804473500647
F-0.08350679596295174
tp1698
Rp1699
ag2
(F-0.5918516627861725
F0.28056299470366886
tp1700
Rp1701
aa(lp1702
g2
(F0.5117316740958731
F0.10707300221053584
tp1703
Rp1704
ag2
(F0.526602566418543
F0.051415220470971246
tp1705
Rp1706
aa(lp1707
g2
(F-0.10918220236639276
F0.011117820786421762
tp1708
Rp1709
ag2
(F-0.19386936471678162
F0.03179295354472078
tp1710
Rp1711
aa(lp1712
g2
(F0.20928100395983407
F-0.3609853501705319
tp1713
Rp1714
ag2
(F0.314142314329819
F-0.42921407768801845
tp1715
Rp1716
aa(lp1717
g2
(F-0.32099589494382674
F0.40100967780399777
tp1718
Rp1719
ag2
(F-0.21936285583353027
F0.3800752443913873
tp1720
Rp1721
aa(lp1722
g2
(F-0.38273694609379444
F0.04992975371591246
tp1723
Rp1724
ag2
(F-0.22807601432837388
F-0.04539611579036518
tp1725
Rp1726
aa(lp1727
g2
(F-0.0022330119899400813
F-0.6128459410309821
tp1728
Rp1729
ag2
(F0.015345640757645662
F-0.36322349012271504
tp1730
Rp1731
aa(lp1732
g2
(F-0.5747139911776307
F0.36549306405084403
tp1733
Rp1734
ag2
(F-0.6486092568840309
F0.1831810032485499
tp1735
Rp1736
aa(lp1737
g2
(F-0.4172683427538596
F0.1252270232267998
tp1738
Rp1739
ag2
(F-0.49910030781261583
F0.46539122885760853
tp1740
Rp1741
aa(lp1742
g2
(F-0.699202828468174
F-0.059555083498502914
tp1743
Rp1744
ag2
(F-0.6506246656983277
F-0.09169539003334704
tp1745
Rp1746
aa(lp1747
g2
(F-0.3046957908693268
F0.7052506002373355
tp1748
Rp1749
ag2
(F-0.38123583729517846
F0.6996713523135147
tp1750
Rp1751
aa(lp1752
g2
(F0.31011968574497395
F0.5151212361413744
tp1753
Rp1754
ag2
(F0.01871365356725463
F0.34245159916094825
tp1755
Rp1756
aa(lp1757
g2
(F-0.6799082735262683
F0.16573117835152573
tp1758
Rp1759
ag2
(F-0.6838314707215715
F0.23212396519609435
tp1760
Rp1761
aa(lp1762
g2
(F0.3798208544424104
F-0.5860148723620369
tp1763
Rp1764
ag2
(F0.42421901287993324
F-0.5982662906712081
tp1765
Rp1766
aa(lp1767
g2
(F-0.3171898126830512
F0.3915483241633917
tp1768
Rp1769
ag2
(F-0.4766287838807546
F0.5768131099883544
tp1770
Rp1771
aa(lp1772
g2
(F0.06105868544716353
F0.6258964182031013
tp1773
Rp1774
ag2
(F-0.1824719161716164
F0.5759698316940935
tp1775
Rp1776
aa(lp1777
g2
(F0.1826943802840667
F0.08917900586755123
tp1778
Rp1779
ag2
(F0.25345896465109774
F-0.10298460344459115
tp1780
Rp1781
aa(lp1782
g2
(F-0.5788083698948453
F0.2197348641150333
tp1783
Rp1784
ag2
(F-0.6055042133914248
F-0.07561656037778186
tp1785
Rp1786
aa(lp1787
g2
(F0.13779153598437532
F0.5172441063755608
tp1788
Rp1789
ag2
(F0.2915563487160756
F0.5748862261164274
tp1790
Rp1791
aa(lp1792
g2
(F-0.02756629958197998
F0.4336242899959062
tp1793
Rp1794
ag2
(F-0.049779716398009044
F0.4203568644765219
tp1795
Rp1796
aa(lp1797
g2
(F-0.0019402593749724417
F0.27322745422173844
tp1798
Rp1799
ag2
(F0.15634190808584603
F0.3179499254445557
tp1800
Rp1801
aa(lp1802
g2
(F-0.23362081262868145
F0.20457126072896747
tp1803
Rp1804
ag2
(F-0.44511911200098647
F0.40714430049514805
tp1805
Rp1806
aa(lp1807
g2
(F0.07256708361001574
F0.4872409950544727
tp1808
Rp1809
ag2
(F0.0879350353631887
F0.4856733840549079
tp1810
Rp1811
aa(lp1812
g2
(F0.32475077185997847
F-0.6049593855056485
tp1813
Rp1814
ag2
(F0.697147853695611
F-0.6751862493950774
tp1815
Rp1816
aa(lp1817
g2
(F0.5565412356118349
F0.4630038321220984
tp1818
Rp1819
ag2
(F0.5043018136212916
F0.3994005183407219
tp1820
Rp1821
aa(lp1822
g2
(F-0.5194475587202714
F0.46213655785848307
tp1823
Rp1824
ag2
(F-0.5198231910692144
F0.433615625229262
tp1825
Rp1826
aa(lp1827
g2
(F0.6072386625290498
F0.27729994919595935
tp1828
Rp1829
ag2
(F0.5821138601286058
F0.43024574217380174
tp1830
Rp1831
aa(lp1832
g2
(F0.0023554501538810557
F-0.6488340584781458
tp1833
Rp1834
ag2
(F0.09593812328802231
F-0.19347719745071135
tp1835
Rp1836
aa(lp1837
g2
(F0.1332758089595718
F0.01444846023239632
tp1838
Rp1839
ag2
(F0.13085080464528753
F0.0936096709664328
tp1840
Rp1841
aa(lp1842
g2
(F-0.11955626773006744
F0.40792628715890666
tp1843
Rp1844
ag2
(F-0.11256000000499367
F0.4123072756891337
tp1845
Rp1846
aa(lp1847
g2
(F0.4748065562332233
F-0.26256117718464234
tp1848
Rp1849
ag2
(F0.5000627127755564
F-0.43702489595088956
tp1850
Rp1851
aa(lp1852
g2
(F-0.6831434414425214
F-0.4658359062054487
tp1853
Rp1854
ag2
(F-0.6725334311324878
F-0.5298609538002085
tp1855
Rp1856
aa(lp1857
g2
(F0.26583349905778564
F-0.6000116700831316
tp1858
Rp1859
ag2
(F0.42185416898126915
F-0.6801383170236623
tp1860
Rp1861
aa(lp1862
g2
(F-0.46849627856711495
F-0.37334642029846615
tp1863
Rp1864
ag2
(F-0.31985152689393437
F-0.24336713701051332
tp1865
Rp1866
aa(lp1867
g2
(F-0.25991648273778034
F-0.6596060328207914
tp1868
Rp1869
ag2
(F-0.4036762212057332
F-0.69587650515326
tp1870
Rp1871
aa(lp1872
g2
(F-0.48338444515319867
F-0.6280021241404257
tp1873
Rp1874
ag2
(F-0.5816144130335718
F-0.675255408073179
tp1875
Rp1876
aa(lp1877
g2
(F0.019345577161290706
F0.3102796709403828
tp1878
Rp1879
ag2
(F0.1419227824581043
F0.3328251747957769
tp1880
Rp1881
aa(lp1882
g2
(F0.18497041120277846
F0.3374314873863238
tp1883
Rp1884
ag2
(F-0.14766637063862542
F0.2419950636047251
tp1885
Rp1886
aa(lp1887
g2
(F-0.023812822668733413
F-0.49454313697610297
tp1888
Rp1889
ag2
(F0.009548595816350591
F-0.28879381215396205
tp1890
Rp1891
aa(lp1892
g2
(F-0.08670320836258227
F0.39311972416075913
tp1893
Rp1894
ag2
(F0.01872896083617981
F0.4274841734881403
tp1895
Rp1896
aa(lp1897
g2
(F-0.5542398172981167
F-0.33175936629498787
tp1898
Rp1899
ag2
(F-0.552026928610186
F-0.4358991334817571
tp1900
Rp1901
aa(lp1902
g2
(F-0.2731044424703815
F0.33406888542036084
tp1903
Rp1904
ag2
(F-0.5124354189199656
F0.5807852963547551
tp1905
Rp1906
aa(lp1907
g2
(F0.41807945975338945
F-0.5131878859525221
tp1908
Rp1909
ag2
(F0.4232627890395444
F-0.4514807476706566
tp1910
Rp1911
aa(lp1912
g2
(F0.4893345149671211
F0.398187824439175
tp1913
Rp1914
ag2
(F0.42694115464266646
F0.36600760563668944
tp1915
Rp1916
aa(lp1917
g2
(F-0.4735952209821077
F-0.2826658875248844
tp1918
Rp1919
ag2
(F-0.4940812120335904
F-0.3119897306427281
tp1920
Rp1921
aa(lp1922
g2
(F0.4494800707797968
F-0.4978075249762878
tp1923
Rp1924
ag2
(F0.4973324404220276
F-0.5846839769777167
tp1925
Rp1926
aa(lp1927
g2
(F-0.47707654255850873
F-0.03236978745200181
tp1928
Rp1929
ag2
(F-0.45428271482318966
F-0.09245169304138323
tp1930
Rp1931
aa(lp1932
g2
(F0.541349799374873
F-0.5342615256872512
tp1933
Rp1934
ag2
(F0.5733570287308567
F-0.2768151480686533
tp1935
Rp1936
aa(lp1937
g2
(F-0.43500468563038286
F-0.5031203375026871
tp1938
Rp1939
ag2
(F-0.13289958955514936
F-0.6424268169873298
tp1940
Rp1941
aa(lp1942
g2
(F-0.01656077742067652
F0.1291198588543535
tp1943
Rp1944
ag2
(F0.0392944301265058
F-0.02391449877912788
tp1945
Rp1946
aa(lp1947
g2
(F0.004602688203922178
F0.1277919500077107
tp1948
Rp1949
ag2
(F0.25825176254993554
F0.3309191540424412
tp1950
Rp1951
aa(lp1952
g2
(F-0.14091272067304028
F0.34131360252502074
tp1953
Rp1954
ag2
(F-0.08524449986036986
F0.38350278790978387
tp1955
Rp1956
aa(lp1957
g2
(F-0.4518781429583488
F0.6077407265120016
tp1958
Rp1959
ag2
(F-0.4584130838019004
F0.5923837618004364
tp1960
Rp1961
aa(lp1962
g2
(F0.4186269416543442
F0.5235025519189387
tp1963
Rp1964
ag2
(F0.46750879923528266
F0.5314203533291133
tp1965
Rp1966
aa(lp1967
g2
(F-0.6437411889216949
F0.323586926167569
tp1968
Rp1969
ag2
(F-0.6447799064593794
F0.20539346074066467
tp1970
Rp1971
aa(lp1972
g2
(F-0.27927662303942535
F0.20689431561302607
tp1973
Rp1974
ag2
(F-0.28000391665976304
F0.23469860264033027
tp1975
Rp1976
aa(lp1977
g2
(F0.343007209758428
F-0.3404808015037681
tp1978
Rp1979
ag2
(F0.257970137247188
F-0.26034036987828113
tp1980
Rp1981
aa(lp1982
g2
(F0.5856357638896399
F0.6366274923794408
tp1983
Rp1984
ag2
(F0.5639852686172975
F0.5428408057377199
tp1985
Rp1986
aa(lp1987
g2
(F0.40841036050770674
F-0.0702339650258651
tp1988
Rp1989
ag2
(F0.44588603922466774
F-0.17467020080021944
tp1990
Rp1991
aa(lp1992
g2
(F0.44764308792914975
F0.2036637795356585
tp1993
Rp1994
ag2
(F0.5802939477828111
F0.14907655377657536
tp1995
Rp1996
aa(lp1997
g2
(F0.32179623829912174
F-0.30725721554265895
tp1998
Rp1999
ag2
(F-0.1422929320330173
F0.1340267950837849
tp2000
Rp2001
aa(lp2002
g2
(F0.4526146604319494
F-0.1461911718942851
tp2003
Rp2004
ag2
(F0.4789886461109678
F-0.22028415125908773
tp2005
Rp2006
aa(lp2007
g2
(F-0.4930020684419193
F-0.021342694672579765
tp2008
Rp2009
ag2
(F-0.5217156611755425
F-0.1535919442754341
tp2010
Rp2011
aa(lp2012
g2
(F-0.5466813082350424
F0.6507069929809084
tp2013
Rp2014
ag2
(F-0.515147920962511
F0.5928654380282423
tp2015
Rp2016
aa(lp2017
g2
(F0.2692620834205558
F-0.08599353252542463
tp2018
Rp2019
ag2
(F0.4692976139790279
F-0.44831078599028834
tp2020
Rp2021
aa(lp2022
g2
(F-0.5884593234297829
F0.00852642356821498
tp2023
Rp2024
ag2
(F-0.5800432758783765
F-0.0676119350810539
tp2025
Rp2026
aa(lp2027
g2
(F0.5763076591474621
F-0.5227711270032607
tp2028
Rp2029
ag2
(F0.5768215828821148
F-0.4330766258847187
tp2030
Rp2031
aa(lp2032
g2
(F0.07129083152933091
F0.5268952038011809
tp2033
Rp2034
ag2
(F0.08022097527228289
F0.5225210999884893
tp2035
Rp2036
aa(lp2037
g2
(F0.6864844691756835
F-0.48137023432493475
tp2038
Rp2039
ag2
(F0.6658900217497052
F-0.14747309271794795
tp2040
Rp2041
aa(lp2042
g2
(F-0.0940758979588402
F-0.6955756925322678
tp2043
Rp2044
ag2
(F-0.22905827283999092
F-0.6869924668143292
tp2045
Rp2046
aa(lp2047
g2
(F0.5525877068862961
F0.006787101539381224
tp2048
Rp2049
ag2
(F0.5683883071807718
F-0.04200308584778123
tp2050
Rp2051
aa(lp2052
g2
(F-0.40624059841640275
F0.4703289970992699
tp2053
Rp2054
ag2
(F-0.21431988636277255
F0.2586474729974706
tp2055
Rp2056
aa(lp2057
g2
(F-0.5849451807684994
F0.5332527463271057
tp2058
Rp2059
ag2
(F-0.6066686637548809
F0.5350869362290218
tp2060
Rp2061
aa(lp2062
g2
(F0.06430701837321573
F0.6767513304088926
tp2063
Rp2064
ag2
(F0.11688699857541962
F0.7046615974552504
tp2065
Rp2066
aa(lp2067
g2
(F0.09860494968921174
F0.4675167164655196
tp2068
Rp2069
ag2
(F-0.17784301003775993
F0.31827851566554166
tp2070
Rp2071
aa(lp2072
g2
(F-0.07754726651777866
F-0.40277621979285855
tp2073
Rp2074
ag2
(F-0.045118320353930375
F-0.33667753667338074
tp2075
Rp2076
aa(lp2077
g2
(F-0.041154228264196124
F-0.6286081797191625
tp2078
Rp2079
ag2
(F-0.051991808944660156
F-0.629670106365827
tp2080
Rp2081
aa(lp2082
g2
(F-0.48952259733607123
F-0.5464226903274759
tp2083
Rp2084
ag2
(F-0.6216423489811221
F-0.6261842177420579
tp2085
Rp2086
aa(lp2087
g2
(F0.49686659096533803
F0.4938767924438754
tp2088
Rp2089
ag2
(F0.5323842412164239
F0.4933482721659579
tp2090
Rp2091
aa(lp2092
g2
(F0.2059420599633025
F0.09009226851637542
tp2093
Rp2094
ag2
(F0.21595305740621817
F0.044615337459488535
tp2095
Rp2096
aa(lp2097
g2
(F-0.4398965014226297
F-0.2367064361650299
tp2098
Rp2099
ag2
(F-0.4071912316313302
F-0.20459336670926087
tp2100
Rp2101
aa(lp2102
g2
(F0.4339581889368376
F0.3953511823296998
tp2103
Rp2104
ag2
(F0.31042836754215886
F0.3098970846847966
tp2105
Rp2106
aa(lp2107
g2
(F-0.6154741600246647
F-0.39938838929519416
tp2108
Rp2109
ag2
(F-0.5575432903731501
F-0.4402646489362686
tp2110
Rp2111
aa(lp2112
g2
(F-0.4930408637590026
F0.22104866980063365
tp2113
Rp2114
ag2
(F-0.5732905406964579
F0.35971374693029623
tp2115
Rp2116
aa(lp2117
g2
(F0.413969332375276
F-0.3127526221662684
tp2118
Rp2119
ag2
(F0.3853478802927097
F-0.27603175196555935
tp2120
Rp2121
aa(lp2122
g2
(F-0.12340742759631618
F-0.6149472687233473
tp2123
Rp2124
ag2
(F-0.1497581139946712
F-0.5805021697232571
tp2125
Rp2126
aa(lp2127
g2
(F-0.6548403088145504
F0.5157722323958658
tp2128
Rp2129
ag2
(F-0.6722922670669428
F0.6333464425139694
tp2130
Rp2131
aa(lp2132
g2
(F0.27086658114111806
F0.37991475546957343
tp2133
Rp2134
ag2
(F0.3857151961986487
F0.45466244389493293
tp2135
Rp2136
aa(lp2137
g2
(F0.198468469234656
F0.7011733150206549
tp2138
Rp2139
ag2
(F0.15783128614242847
F0.6868568322904718
tp2140
Rp2141
aa(lp2142
g2
(F0.47872894130934074
F-0.5927181333887256
tp2143
Rp2144
ag2
(F0.4296856047800366
F-0.5911187561472802
tp2145
Rp2146
aa(lp2147
g2
(F-0.5799553687642911
F-0.4869658987545764
tp2148
Rp2149
ag2
(F-0.06943117183220582
F-0.6917951778330897
tp2150
Rp2151
aa(lp2152
g2
(F-0.29861929693524836
F0.6311977324678422
tp2153
Rp2154
ag2
(F-0.2887773742758733
F0.5234067188065723
tp2155
Rp2156
aa(lp2157
g2
(F-0.44809746965008235
F-0.3790481200347074
tp2158
Rp2159
ag2
(F-0.1250844696590263
F-0.045832232750475876
tp2160
Rp2161
aa(lp2162
g2
(F0.13564933220573305
F0.147623783466172
tp2163
Rp2164
ag2
(F0.13250191065305528
F0.057141655992015816
tp2165
Rp2166
aa(lp2167
g2
(F-0.46748620044509814
F0.615540407960055
tp2168
Rp2169
ag2
(F-0.5166880542068636
F0.648898345248879
tp2170
Rp2171
aa(lp2172
g2
(F0.25503458048719074
F0.6985320612407748
tp2173
Rp2174
ag2
(F0.2784459311300138
F0.6905038236146617
tp2175
Rp2176
aa(lp2177
g2
(F0.543097492776371
F-0.5535674442921452
tp2178
Rp2179
ag2
(F0.5667887054544101
F-0.5886196463063215
tp2180
Rp2181
aa(lp2182
g2
(F-0.1931720772203489
F0.5021257771934737
tp2183
Rp2184
ag2
(F-0.07427205190969755
F0.5191595434854273
tp2185
Rp2186
aa(lp2187
g2
(F-0.5083752263055441
F-0.5452136565701388
tp2188
Rp2189
ag2
(F-0.5392281703272886
F-0.5746105758796367
tp2190
Rp2191
aa(lp2192
g2
(F-0.33853912802741654
F-0.38844003688102435
tp2193
Rp2194
ag2
(F-0.17242542215439882
F-0.31163870730601284
tp2195
Rp2196
aa(lp2197
g2
(F-0.6069503765162498
F-0.4747349127795935
tp2198
Rp2199
ag2
(F-0.08057597093215818
F-0.6675607332738086
tp2200
Rp2201
aa(lp2202
g2
(F0.4076962065727996
F0.003333911092119002
tp2203
Rp2204
ag2
(F0.5217231483693534
F-0.344549506437644
tp2205
Rp2206
aa(lp2207
g2
(F0.589262082742033
F-0.27863812850233827
tp2208
Rp2209
ag2
(F0.5460716923533098
F-0.2193557666486044
tp2210
Rp2211
aa(lp2212
g2
(F0.049178957904639664
F-0.4330082962607398
tp2213
Rp2214
ag2
(F0.04958036556649359
F-0.4473924146866939
tp2215
Rp2216
aa(lp2217
g2
(F-0.28743867572367493
F0.20499872864536417
tp2218
Rp2219
ag2
(F-0.27048941413656596
F0.18203486914102618
tp2220
Rp2221
aa(lp2222
g2
(F-0.23470030956873889
F-0.5708755220126377
tp2223
Rp2224
ag2
(F-0.30773074188192084
F-0.5215775720326705
tp2225
Rp2226
aa(lp2227
g2
(F-0.7048371025211995
F-0.506232837406588
tp2228
Rp2229
ag2
(F-0.6788061702405297
F-0.45077021145087787
tp2230
Rp2231
aa(lp2232
g2
(F0.2850931728790488
F0.6284774328507599
tp2233
Rp2234
ag2
(F-0.019925035444064654
F0.6080381684131708
tp2235
Rp2236
aa(lp2237
g2
(F-0.44177417209730074
F0.05437075587142437
tp2238
Rp2239
ag2
(F-0.39345972985808403
F-0.028876291036573742
tp2240
Rp2241
aa(lp2242
g2
(F-0.13768891125392646
F-0.084581895769972
tp2243
Rp2244
ag2
(F-0.08705046525835347
F-0.014809420763316816
tp2245
Rp2246
aa(lp2247
g2
(F-0.6794974338064288
F-0.4241413089059438
tp2248
Rp2249
ag2
(F-0.478326155423033
F0.034072843562978905
tp2250
Rp2251
aa(lp2252
g2
(F0.6625724406464921
F-0.38943749376782527
tp2253
Rp2254
ag2
(F0.6548498091997188
F-0.008996670539353269
tp2255
Rp2256
aa(lp2257
g2
(F-0.6066091162133472
F0.3061377338773832
tp2258
Rp2259
ag2
(F-0.6368192743942167
F0.21265355869436675
tp2260
Rp2261
aa(lp2262
g2
(F0.5696076523580607
F-0.6387609329826665
tp2263
Rp2264
ag2
(F0.6007505180553749
F-0.4705882297337608
tp2265
Rp2266
aa(lp2267
g2
(F0.5050084089498692
F0.550755459697033
tp2268
Rp2269
ag2
(F0.4802681212958031
F0.6157924376974102
tp2270
Rp2271
aa(lp2272
g2
(F-0.24545659134667802
F-0.5485929736143034
tp2273
Rp2274
ag2
(F-0.10048653807058672
F-0.6474706646945754
tp2275
Rp2276
aa(lp2277
g2
(F-0.6951624433810641
F-0.31584086744761447
tp2278
Rp2279
ag2
(F-0.6492443575565674
F-0.29269890758319
tp2280
Rp2281
aa(lp2282
g2
(F0.34686345544773434
F-0.4151033874843837
tp2283
Rp2284
ag2
(F0.25971753307515755
F-0.37117083697213665
tp2285
Rp2286
aa(lp2287
g2
(F0.3713086165193977
F0.3525266885587488
tp2288
Rp2289
ag2
(F0.17384905046508936
F0.23451936474596125
tp2290
Rp2291
aa(lp2292
g2
(F-0.6098570297575875
F-0.19164149516980977
tp2293
Rp2294
ag2
(F-0.6496134988247564
F-0.2711802068341509
tp2295
Rp2296
aa(lp2297
g2
(F0.539292881141169
F0.5766488010812441
tp2298
Rp2299
ag2
(F0.4976982223311024
F0.6212279790425403
tp2300
Rp2301
aa(lp2302
g2
(F0.6577056062931528
F0.5084276296764312
tp2303
Rp2304
ag2
(F0.6583963551313952
F0.5969851029539734
tp2305
Rp2306
aa(lp2307
g2
(F0.5736888207357427
F0.42926844333253666
tp2308
Rp2309
ag2
(F0.5841163154373885
F0.37233681657570616
tp2310
Rp2311
aa(lp2312
g2
(F0.3096756227399633
F-0.1178788777993306
tp2313
Rp2314
ag2
(F0.2704977092185986
F-0.07203222518444408
tp2315
Rp2316
aa(lp2317
g2
(F-0.014767363653697463
F0.4645244779954065
tp2318
Rp2319
ag2
(F0.03673585936746182
F0.4660380783758076
tp2320
Rp2321
aa(lp2322
g2
(F0.6885540467472129
F0.49522260181430955
tp2323
Rp2324
ag2
(F0.6833764335190857
F0.39378621345040976
tp2325
Rp2326
aa(lp2327
g2
(F-0.04871131003092333
F-0.523095539157175
tp2328
Rp2329
ag2
(F-0.03373143868203621
F-0.5887811755310646
tp2330
Rp2331
aa(lp2332
g2
(F0.51816472433476
F-0.6336190194924834
tp2333
Rp2334
ag2
(F0.13572611340512863
F-0.5381291732588813
tp2335
Rp2336
aa(lp2337
g2
(F-0.4191149367494503
F0.012897554287646384
tp2338
Rp2339
ag2
(F-0.4816478322816995
F-0.007003096142502274
tp2340
Rp2341
aa(lp2342
g2
(F-0.1956281538467476
F0.5079009798425314
tp2343
Rp2344
ag2
(F-0.3552692064605261
F0.4827970098550298
tp2345
Rp2346
aa(lp2347
g2
(F0.5945833982480238
F0.6420840511980801
tp2348
Rp2349
ag2
(F0.5898977169450925
F0.6648719727153689
tp2350
Rp2351
aa(lp2352
g2
(F-0.1272452023191033
F-0.1324131255664419
tp2353
Rp2354
ag2
(F-0.22317506128561465
F-0.21895888336140434
tp2355
Rp2356
aa(lp2357
g2
(F-0.2596818880421946
F0.6820385353054514
tp2358
Rp2359
ag2
(F-0.1772560372553128
F0.6658847217473092
tp2360
Rp2361
aa(lp2362
g2
(F-0.5834974023481108
F-0.4172234394452395
tp2363
Rp2364
ag2
(F-0.5987375211283732
F-0.3863204638873134
tp2365
Rp2366
aa(lp2367
g2
(F-0.08801024643262456
F-0.6254514619166656
tp2368
Rp2369
ag2
(F-0.08571480440845158
F-0.5883582111551117
tp2370
Rp2371
aa(lp2372
g2
(F-0.20065575309324335
F0.07180196918119974
tp2373
Rp2374
ag2
(F-0.19497196816064222
F0.09116211241943217
tp2375
Rp2376
aa(lp2377
g2
(F-0.6679524770246231
F-0.14145788127536463
tp2378
Rp2379
ag2
(F-0.6725850105891521
F-0.15203140492869105
tp2380
Rp2381
aa(lp2382
g2
(F0.17682156006103278
F-0.6846684556582674
tp2383
Rp2384
ag2
(F0.013203913244000609
F-0.6948734580009677
tp2385
Rp2386
aa(lp2387
g2
(F0.5873798725511392
F-0.2055539307085399
tp2388
Rp2389
ag2
(F0.5736249364107788
F-0.19353607787943217
tp2390
Rp2391
aa(lp2392
g2
(F0.5749577351755228
F-0.14703541594300729
tp2393
Rp2394
ag2
(F0.5198036438976241
F-0.0175340023311934
tp2395
Rp2396
aa(lp2397
g2
(F0.2504729397452704
F0.3733605923879597
tp2398
Rp2399
ag2
(F0.34206995143044794
F0.40229619545652295
tp2400
Rp2401
aa(lp2402
g2
(F0.052922823707054034
F-0.045101253198067126
tp2403
Rp2404
ag2
(F-0.01648741524565378
F0.029056749560141704
tp2405
Rp2406
aa(lp2407
g2
(F0.1824943200500968
F-0.4251098398578575
tp2408
Rp2409
ag2
(F0.23458273166561938
F-0.3890427405483721
tp2410
Rp2411
aa(lp2412
g2
(F-0.00746833868019392
F-0.029276502155637707
tp2413
Rp2414
ag2
(F-0.03895299311505396
F0.006919107663063584
tp2415
Rp2416
aa(lp2417
g2
(F-0.6832056500033122
F-0.6810143958349992
tp2418
Rp2419
ag2
(F-0.7067212431776237
F-0.6020817179090896
tp2420
Rp2421
aa(lp2422
g2
(F-0.03078094224551242
F0.1947815066946854
tp2423
Rp2424
ag2
(F0.2278159922216727
F0.31775734184389304
tp2425
Rp2426
aa(lp2427
g2
(F0.44185504445588486
F-0.2347463348756888
tp2428
Rp2429
ag2
(F0.4801338057500806
F-0.37580432861263197
tp2430
Rp2431
aa(lp2432
g2
(F0.24130869074724492
F-0.00026078392212247614
tp2433
Rp2434
ag2
(F0.25016308725408976
F-0.027401426055235545
tp2435
Rp2436
aa(lp2437
g2
(F0.6138656924365247
F0.5548505048452193
tp2438
Rp2439
ag2
(F0.6974190319135172
F0.10782065984434863
tp2440
Rp2441
aa(lp2442
g2
(F0.15316452424920624
F-0.5074475250204898
tp2443
Rp2444
ag2
(F0.17270118609831608
F-0.4891875925838801
tp2445
Rp2446
aa(lp2447
g2
(F-0.4252759776474607
F0.4266042468902864
tp2448
Rp2449
ag2
(F-0.10876023729654105
F0.10845583646542956
tp2450
Rp2451
aa(lp2452
g2
(F0.6442392445483818
F-0.5054477883456806
tp2453
Rp2454
ag2
(F0.6828629399871817
F-0.5904278302159875
tp2455
Rp2456
aa(lp2457
g2
(F-0.529375799553457
F-0.17446528050279664
tp2458
Rp2459
ag2
(F-0.571202598869912
F-0.22611896912553087
tp2460
Rp2461
aa(lp2462
g2
(F0.30714501514574355
F0.16589964677209124
tp2463
Rp2464
ag2
(F0.23271187723138465
F0.1900703050216973
tp2465
Rp2466
aa(lp2467
g2
(F-0.34081042065327527
F-0.32520675042717
tp2468
Rp2469
ag2
(F-0.34551723254517575
F-0.31288583936976955
tp2470
Rp2471
aa(lp2472
g2
(F0.23615452160066674
F-0.356545115008475
tp2473
Rp2474
ag2
(F0.24720741664421675
F-0.33857141488540576
tp2475
Rp2476
aa(lp2477
g2
(F-0.44794705822898095
F-0.10467711697373627
tp2478
Rp2479
ag2
(F-0.4833951592297626
F-0.15366551066522294
tp2480
Rp2481
aa(lp2482
g2
(F0.3235367742554529
F-0.6771036990452323
tp2483
Rp2484
ag2
(F0.3712000419563224
F-0.6819333275685241
tp2485
Rp2486
aa(lp2487
g2
(F-0.6916908541149448
F0.32986988851497556
tp2488
Rp2489
ag2
(F-0.6490384181126653
F0.12006255293199564
tp2490
Rp2491
aa(lp2492
g2
(F0.18542477156596848
F0.45126598514893446
tp2493
Rp2494
ag2
(F-0.13924459388913624
F0.2792868567247825
tp2495
Rp2496
aa(lp2497
g2
(F-0.387085803107207
F-0.06356761204673467
tp2498
Rp2499
ag2
(F-0.4187545183595917
F-0.09700460470760308
tp2500
Rp2501
aa(lp2502
g2
(F-0.6167754204063349
F0.5238962397779166
tp2503
Rp2504
ag2
(F-0.5476007087343419
F0.4562144615223336
tp2505
Rp2506
aa(lp2507
g2
(F0.1468039843076312
F-0.5227187728162034
tp2508
Rp2509
ag2
(F0.5002902326952305
F-0.6124021100918157
tp2510
Rp2511
aa(lp2512
g2
(F-0.6871061119667398
F-0.03810129508934457
tp2513
Rp2514
ag2
(F-0.6892589980821496
F0.11703794251594468
tp2515
Rp2516
aa(lp2517
g2
(F-0.14677081756976695
F0.15719283726458722
tp2518
Rp2519
ag2
(F-0.004107383103953199
F0.018998085137847398
tp2520
Rp2521
aa(lp2522
g2
(F-0.2498760548709847
F-0.5297797698711908
tp2523
Rp2524
ag2
(F-0.17411600868955512
F-0.5560401102600632
tp2525
Rp2526
aa(lp2527
g2
(F0.6406161395435697
F0.6668244611334921
tp2528
Rp2529
ag2
(F0.6385573895583985
F0.5642031044665325
tp2530
Rp2531
aa(lp2532
g2
(F0.20629085302640482
F0.5765581719329254
tp2533
Rp2534
ag2
(F0.31434095640094806
F0.6003865283774685
tp2535
Rp2536
aa(lp2537
g2
(F0.42845019461281186
F0.3114191993071991
tp2538
Rp2539
ag2
(F0.4017494756157187
F0.34073190550223775
tp2540
Rp2541
aa(lp2542
g2
(F-0.6451389326479087
F-0.5882512275030981
tp2543
Rp2544
ag2
(F-0.6214148829853282
F-0.5752029943451096
tp2545
Rp2546
aa(lp2547
g2
(F-0.37619553895575436
F-0.13065138999115522
tp2548
Rp2549
ag2
(F-0.38583441036706645
F-0.14259596337981895
tp2550
Rp2551
aa(lp2552
g2
(F-0.504756773491529
F0.3302995775038835
tp2553
Rp2554
ag2
(F-0.4711900639915413
F0.2895632877661537
tp2555
Rp2556
aa(lp2557
g2
(F0.49838308801252795
F0.4402090183790841
tp2558
Rp2559
ag2
(F0.5076641455565805
F0.4592609126173459
tp2560
Rp2561
aa.