(lp0
(lp1
copenvoronoi
Point
p2
(F-0.5170870448647804
F0.4913455028026006
tp3
Rp4
ag2
(F0.37303364356652313
F-0.34638470564456525
tp5
Rp6
aa(lp7
g2
(F-0.400788976162598
F-0.11014379509498107
tp8
Rp9
ag2
(F-0.6660369055361731
F-0.39358742007813124
tp10
Rp11
aa(lp12
g2
(F-0.08784020745098975
F-0.005922385033731659
tp13
Rp14
ag2
(F-0.37747559045401125
F-0.38061218704111593
tp15
Rp16
aa(lp17
g2
(F0.31322625305842844
F0.29867026496463955
tp18
Rp19
ag2
(F0.6172201970218678
F-0.11015733706849462
tp20
Rp21
aa(lp22
g2
(F0.5409069902993233
F0.48959708439987315
tp23
Rp24
ag2
(F0.007472450724816948
F0.12586820032075363
tp25
Rp26
aa(lp27
g2
(F0.029611394163141624
F-0.15096009241581954
tp28
Rp29
ag2
(F-0.014575563142595227
F-0.6652814660378519
tp30
Rp31
aa(lp32
g2
(F0.38257749328447144
F0.056027532904294075
tp33
Rp34
ag2
(F0.5095266917338452
F-0.37876015202055974
tp35
Rp36
aa(lp37
g2
(F0.006675749058638991
F-0.02131911073879067
tp38
Rp39
ag2
(F-0.20252957440845543
F-0.2176786944732152
tp40
Rp41
aa(lp42
g2
(F-0.6675441792880061
F-0.38239623196548156
tp43
Rp44
ag2
(F-0.4564922153903935
F0.11944570894471318
tp45
Rp46
aa(lp47
g2
(F-0.49997860154502494
F0.3094800935080513
tp48
Rp49
ag2
(F-0.4805107466232278
F0.28935605384616425
tp50
Rp51
aa(lp52
g2
(F-0.148636659890796
F0.10726238922611486
tp53
Rp54
ag2
(F-0.2527966007551498
F0.1851882413736894
tp55
Rp56
aa(lp57
g2
(F-0.2738106673816148
F0.507015935775585
tp58
Rp59
ag2
(F-0.268186330116436
F0.6212476585193294
tp60
Rp61
aa(lp62
g2
(F-0.5594286290038062
F0.23469938726962936
tp63
Rp64
ag2
(F-0.288396791464299
F-0.00028295268624445313
tp65
Rp66
aa(lp67
g2
(F0.36644561982793467
F0.14171668664256898
tp68
Rp69
ag2
(F0.48243377772933305
F-0.1865234560090514
tp70
Rp71
aa(lp72
g2
(F0.46353417244242
F-0.6895963502076652
tp73
Rp74
ag2
(F0.2409984510938713
F-0.5774472657415526
tp75
Rp76
aa(lp77
g2
(F0.5846245972528443
F0.6644163078874086
tp78
Rp79
ag2
(F0.6643925882143804
F-0.5496166918678983
tp80
Rp81
aa(lp82
g2
(F-0.36048585996731325
F-0.6782935538376822
tp83
Rp84
ag2
(F-0.36237907341533937
F-0.6048202018525988
tp85
Rp86
aa(lp87
g2
(F-0.29582300035306736
F0.4132116473158369
tp88
Rp89
ag2
(F-0.00953032473900739
F0.5128631027568042
tp90
Rp91
aa(lp92
g2
(F0.5930602709070245
F-0.29204995783352705
tp93
Rp94
ag2
(F0.5568590320051097
F-0.5067400886356002
tp95
Rp96
aa(lp97
g2
(F0.040590389811494654
F0.0012722541788059427
tp98
Rp99
ag2
(F0.2104909701065174
F-0.08723299789994676
tp100
Rp101
aa(lp102
g2
(F0.27231667087069633
F0.49354797856832455
tp103
Rp104
ag2
(F-0.1815647546711402
F0.28465667175479503
tp105
Rp106
aa(lp107
g2
(F-0.47404699953003676
F0.3251222539560794
tp108
Rp109
ag2
(F-0.6495360034487941
F0.6805493469326582
tp110
Rp111
aa(lp112
g2
(F-0.7014372613053793
F-0.43863431142104997
tp113
Rp114
ag2
(F-0.08658795461885171
F-0.677359261228424
tp115
Rp116
aa(lp117
g2
(F0.18034983107287816
F0.1493798976178079
tp118
Rp119
ag2
(F0.4742315585209995
F-0.4149220345794034
tp120
Rp121
aa(lp122
g2
(F-0.3043647609732549
F0.05987699719369355
tp123
Rp124
ag2
(F-0.32070729459917446
F0.12125196036034014
tp125
Rp126
aa(lp127
g2
(F-0.554174845570392
F0.4349400932871883
tp128
Rp129
ag2
(F-0.5401284213799313
F0.34968584839919736
tp130
Rp131
aa(lp132
g2
(F0.06404561655051988
F0.6575319897316427
tp133
Rp134
ag2
(F0.3692025968342605
F0.6696581014050984
tp135
Rp136
aa(lp137
g2
(F-0.37884818637572876
F0.08633020534338665
tp138
Rp139
ag2
(F-0.46334872863377186
F0.4097933050437472
tp140
Rp141
aa(lp142
g2
(F0.40363345894101554
F-0.43854639789794064
tp143
Rp144
ag2
(F0.17803040316872443
F-0.4728712570635486
tp145
Rp146
aa(lp147
g2
(F0.15027419793273766
F-0.3366054109334302
tp148
Rp149
ag2
(F0.037607223707090576
F-0.5110688625508678
tp150
Rp151
aa(lp152
g2
(F-0.10731083994392077
F0.2296480103471169
tp153
Rp154
ag2
(F0.30200028500300635
F0.34405420333300807
tp155
Rp156
aa(lp157
g2
(F0.0014946221693408202
F0.03695113382448645
tp158
Rp159
ag2
(F-0.4967333228507379
F0.5860755595107143
tp160
Rp161
aa(lp162
g2
(F0.44636721939206536
F0.6016675790853052
tp163
Rp164
ag2
(F0.5972072887512732
F0.4261982577235093
tp165
Rp166
aa(lp167
g2
(F0.10177844350166254
F0.07265777698816955
tp168
Rp169
ag2
(F0.036242353324222765
F0.059454345848629075
tp170
Rp171
aa(lp172
g2
(F-0.05039600596001337
F0.4184764042743152
tp173
Rp174
ag2
(F-0.18012409667286544
F0.3526536802613671
tp175
Rp176
aa(lp177
g2
(F-0.02627554898469786
F-0.23116550279621428
tp178
Rp179
ag2
(F-0.06201568629591059
F-0.5423375282729842
tp180
Rp181
aa(lp182
g2
(F0.5728673131902238
F-0.5428359240037797
tp183
Rp184
ag2
(F0.5004571633577575
F-0.557441023549742
tp185
Rp186
aa(lp187
g2
(F0.6915038253545236
F0.2224308501448854
tp188
Rp189
ag2
(F0.6021903033402662
F0.6628210824125633
tp190
Rp191
aa(lp192
g2
(F0.19569622267969944
F-0.364780835895541
tp193
Rp194
ag2
(F0.25405524250930334
F-0.32013101339721756
tp195
Rp196
aa(lp197
g2
(F0.42930263374070377
F0.19967700340450667
tp198
Rp199
ag2
(F0.4855356895859668
F0.15013343780322264
tp200
Rp201
aa(lp202
g2
(F0.39153129454798896
F0.5887960329752466
tp203
Rp204
ag2
(F-0.2634700292244548
F0.5370653285324563
tp205
Rp206
aa(lp207
g2
(F-0.2569340187289975
F0.049056630833365644
tp208
Rp209
ag2
(F-0.07256966610809679
F0.0022445178054731896
tp210
Rp211
aa(lp212
g2
(F0.3483877085238358
F-0.1659874559295741
tp213
Rp214
ag2
(F0.2579687228911317
F0.12870107696854594
tp215
Rp216
aa(lp217
g2
(F0.6146768463111596
F0.07380932019161646
tp218
Rp219
ag2
(F0.5796259868611804
F-0.032305727787385385
tp220
Rp221
aa(lp222
g2
(F-0.6289097273619995
F0.6539086860906287
tp223
Rp224
ag2
(F-0.23345077300438455
F0.6562173867536685
tp225
Rp226
aa(lp227
g2
(F-0.6941274671024124
F0.3743590441966591
tp228
Rp229
ag2
(F-0.5873876725526893
F0.4484278134155193
tp230
Rp231
aa(lp232
g2
(F-0.5181899203810121
F-0.4125989440342532
tp233
Rp234
ag2
(F-0.4757504914696119
F-0.19391443436322275
tp235
Rp236
aa(lp237
g2
(F0.5325367327120145
F-0.623111447562646
tp238
Rp239
ag2
(F0.21839728944328773
F0.013493410576695064
tp240
Rp241
aa(lp242
g2
(F0.1657767948909903
F-0.2713058363047356
tp243
Rp244
ag2
(F0.07691428651821508
F-0.10266192087364234
tp245
Rp246
aa(lp247
g2
(F-0.0854712857706229
F0.4453836135600129
tp248
Rp249
ag2
(F-0.0815155731325512
F0.47419105483084745
tp250
Rp251
aa(lp252
g2
(F0.010566784915965743
F-0.47490424686176264
tp253
Rp254
ag2
(F0.058028706846303124
F-0.10294434252886375
tp255
Rp256
aa(lp257
g2
(F-0.5608732674361583
F-0.5615111839484139
tp258
Rp259
ag2
(F-0.6327432878262023
F-0.4925656141157423
tp260
Rp261
aa(lp262
g2
(F0.15748477955529683
F-0.1630706960645888
tp263
Rp264
ag2
(F0.2980490348576359
F-0.29178207278635654
tp265
Rp266
aa(lp267
g2
(F-0.25841399663149583
F-0.5132348603001295
tp268
Rp269
ag2
(F-0.19993208136494622
F-0.4608199625812565
tp270
Rp271
aa(lp272
g2
(F-0.5500017092339862
F0.21807383795730317
tp273
Rp274
ag2
(F-0.5833528232540777
F0.017493085634740835
tp275
Rp276
aa(lp277
g2
(F-0.32722340181111215
F0.7011515249446887
tp278
Rp279
ag2
(F-0.2522427372739294
F0.6661622026040144
tp280
Rp281
aa(lp282
g2
(F0.17325806365000218
F-0.6155023046239911
tp283
Rp284
ag2
(F-0.053786677656268767
F-0.6901713277049264
tp285
Rp286
aa(lp287
g2
(F-0.35621182340362767
F0.5035882961113736
tp288
Rp289
ag2
(F-0.33254828578019896
F0.6124921638135405
tp290
Rp291
aa(lp292
g2
(F0.6659601656930518
F-0.6676636795713475
tp293
Rp294
ag2
(F0.1169733910164743
F-0.5233349968852468
tp295
Rp296
aa(lp297
g2
(F-0.4984352899838169
F-0.36532267823302395
tp298
Rp299
ag2
(F-0.47908544937935693
F-0.3399262249872956
tp300
Rp301
aa(lp302
g2
(F-0.6946036106512257
F-0.5113971308222227
tp303
Rp304
ag2
(F-0.684511519881481
F-0.5131841228745584
tp305
Rp306
aa(lp307
g2
(F0.44828717659687034
F0.11642496072725517
tp308
Rp309
ag2
(F0.49020122797493926
F-0.08050717926681084
tp310
Rp311
aa(lp312
g2
(F0.13153625538824465
F0.669129281404333
tp313
Rp314
ag2
(F0.1073311844660324
F0.6656216716735657
tp315
Rp316
aa(lp317
g2
(F-0.3167685473904481
F-0.39704464867200306
tp318
Rp319
ag2
(F-0.10445990609505718
F-0.5059962434450802
tp320
Rp321
aa(lp322
g2
(F0.23598765890006557
F0.4569736701022884
tp323
Rp324
ag2
(F0.23527128377003437
F0.42062544505204014
tp325
Rp326
aa(lp327
g2
(F-0.14248250481897595
F-0.6930578608292058
tp328
Rp329
ag2
(F0.004633459068257184
F-0.7032413385388484
tp330
Rp331
aa(lp332
g2
(F-0.3979748489300717
F-0.4684931175970112
tp333
Rp334
ag2
(F-0.2516325515841696
F-0.47686850861471947
tp335
Rp336
aa(lp337
g2
(F0.32077839077144543
F0.2913211278022937
tp338
Rp339
ag2
(F0.5854379265677452
F0.09678118055743445
tp340
Rp341
aa(lp342
g2
(F0.49082636014424796
F-0.5163692748732667
tp343
Rp344
ag2
(F0.48251052132226313
F-0.4547005855099925
tp345
Rp346
aa(lp347
g2
(F0.04005049219343071
F-0.45462311955994184
tp348
Rp349
ag2
(F0.05763102198226888
F-0.1276192377727613
tp350
Rp351
aa(lp352
g2
(F-0.5855817608660396
F-0.14944382797947386
tp353
Rp354
ag2
(F-0.6932348911015728
F-0.4078980472040427
tp355
Rp356
aa(lp357
g2
(F-0.10453175224153499
F-0.19797604607694463
tp358
Rp359
ag2
(F-0.07364864273404692
F-0.2936261260741546
tp360
Rp361
aa(lp362
g2
(F0.5934339428898263
F0.6984701773789288
tp363
Rp364
ag2
(F0.20158450531014926
F0.5988388679281662
tp365
Rp366
aa(lp367
g2
(F-0.11158266389111116
F0.6231881882590529
tp368
Rp369
ag2
(F0.46998295510403487
F0.6749051218047726
tp370
Rp371
aa(lp372
g2
(F0.6510489306772638
F-0.3198342241326157
tp373
Rp374
ag2
(F0.5932532263975114
F0.6856925207573081
tp375
Rp376
aa(lp377
g2
(F0.5753753756245243
F0.6929265902072703
tp378
Rp379
ag2
(F0.2525062042380133
F0.46885462152572677
tp380
Rp381
aa(lp382
g2
(F-0.5091646703000732
F-0.5072528449425502
tp383
Rp384
ag2
(F-0.5009511131728949
F-0.3720115636330085
tp385
Rp386
aa(lp387
g2
(F-0.4531497580765787
F-0.03516587503824453
tp388
Rp389
ag2
(F-0.38027731486320376
F-0.05702530883846768
tp390
Rp391
aa(lp392
g2
(F0.5255251039250424
F-0.2799219956096964
tp393
Rp394
ag2
(F0.44794626509012914
F0.09468225853181145
tp395
Rp396
aa(lp397
g2
(F-0.13925854095111845
F-0.05052493164295191
tp398
Rp399
ag2
(F-0.4181546253495782
F-0.30347309414379847
tp400
Rp401
aa(lp402
g2
(F0.1159710777547941
F-0.06870854660070025
tp403
Rp404
ag2
(F0.24586072529470449
F-0.17806998467510637
tp405
Rp406
aa(lp407
g2
(F0.36098599259568753
F-0.16443459971324637
tp408
Rp409
ag2
(F0.4944403556304231
F-0.4401189439096515
tp410
Rp411
aa(lp412
g2
(F0.3582643526902576
F0.551232503576822
tp413
Rp414
ag2
(F0.18810760292135353
F0.4620374142453776
tp415
Rp416
aa(lp417
g2
(F-0.6817773580341666
F0.2020727052296094
tp418
Rp419
ag2
(F-0.631254718737139
F-0.08376048666342206
tp420
Rp421
aa(lp422
g2
(F-0.4580578634124902
F-0.43975425880579855
tp423
Rp424
ag2
(F-0.17497570960849185
F-0.3056588090110015
tp425
Rp426
aa(lp427
g2
(F-0.2087672887222749
F0.3013055763804555
tp428
Rp429
ag2
(F-0.188754566755292
F0.2495732328998137
tp430
Rp431
aa(lp432
g2
(F-0.7039496047499274
F-0.7038763140324549
tp433
Rp434
ag2
(F-0.45389210348237236
F-0.5528468477644868
tp435
Rp436
aa(lp437
g2
(F0.14495022143379288
F-0.6981706315071985
tp438
Rp439
ag2
(F0.2765515537106381
F-0.689406423879395
tp440
Rp441
aa(lp442
g2
(F-0.16450379148292793
F-0.574922275925982
tp443
Rp444
ag2
(F-0.08157314207748245
F-0.5348704757040854
tp445
Rp446
aa(lp447
g2
(F0.2329389608125253
F0.42554804257131074
tp448
Rp449
ag2
(F0.22921907131204855
F0.4071753543668595
tp450
Rp451
aa(lp452
g2
(F0.2887078720282531
F-0.6243021537534729
tp453
Rp454
ag2
(F0.2316712467507751
F-0.6258305814188266
tp455
Rp456
aa(lp457
g2
(F-0.641462679340573
F0.17023155731868989
tp458
Rp459
ag2
(F-0.6028800277735077
F0.290361972890651
tp460
Rp461
aa(lp462
g2
(F-0.6294124683425009
F-0.183356362507075
tp463
Rp464
ag2
(F-0.545010258189301
F0.00575806504029952
tp465
Rp466
aa(lp467
g2
(F0.027579020663471954
F-0.30324021732855216
tp468
Rp469
ag2
(F0.02357725836803304
F-0.25075896387458474
tp470
Rp471
aa(lp472
g2
(F-0.29082886424472565
F0.6378086290937104
tp473
Rp474
ag2
(F0.1768913664548244
F0.6877518998474559
tp475
Rp476
aa(lp477
g2
(F0.5253023975268396
F0.36165082198479404
tp478
Rp479
ag2
(F0.48519944240889656
F0.29589839913167637
tp480
Rp481
aa(lp482
g2
(F0.4172373094972366
F-0.5638829038137233
tp483
Rp484
ag2
(F0.37394450235499543
F-0.5135862680745216
tp485
Rp486
aa(lp487
g2
(F0.3835645245075445
F-0.19108944469544464
tp488
Rp489
ag2
(F0.32874670537983985
F0.1185562332455754
tp490
Rp491
aa(lp492
g2
(F0.4061032114445573
F0.4649635904798699
tp493
Rp494
ag2
(F0.1391311796771264
F0.3469813609546577
tp495
Rp496
aa(lp497
g2
(F-0.25175398033514296
F-0.4017799942952039
tp498
Rp499
ag2
(F-0.10111592767891475
F-0.37658786692707386
tp500
Rp501
aa(lp502
g2
(F-0.5262979683174025
F0.3451123237027245
tp503
Rp504
ag2
(F-0.4815065092601307
F0.233292634264617
tp505
Rp506
aa(lp507
g2
(F-0.3215474892148035
F-0.20196052578698986
tp508
Rp509
ag2
(F-0.4103183515199879
F-0.22213666679699384
tp510
Rp511
aa(lp512
g2
(F-0.17166032512481377
F0.23319486370356923
tp513
Rp514
ag2
(F0.3111749407769395
F0.36842308456512307
tp515
Rp516
aa(lp517
g2
(F-0.4310289960231889
F0.09156143897451774
tp518
Rp519
ag2
(F-0.32883840882771687
F-0.16863865220965069
tp520
Rp521
aa(lp522
g2
(F0.025308511544797963
F-0.6627863336245141
tp523
Rp524
ag2
(F0.03616494742327836
F-0.5980600226176711
tp525
Rp526
aa(lp527
g2
(F-0.691854402276708
F-0.17110445672295638
tp528
Rp529
ag2
(F-0.6109528483765675
F-0.09148291792691565
tp530
Rp531
aa(lp532
g2
(F-0.24391561020408498
F-0.0368051519805912
tp533
Rp534
ag2
(F-0.3406920679255542
F-0.05502159498098713
tp535
Rp536
aa(lp537
g2
(F-0.401786698690712
F0.09402956851894417
tp538
Rp539
ag2
(F-0.3161116431460663
F-0.21084281337358624
tp540
Rp541
aa(lp542
g2
(F-0.006201599381005174
F0.027387275847143844
tp543
Rp544
ag2
(F-0.6158598987515906
F0.6181163743800817
tp545
Rp546
aa(lp547
g2
(F-0.5020548404512698
F-0.36213836398589927
tp548
Rp549
ag2
(F-0.4026328926951916
F-0.20781662454586858
tp550
Rp551
aa(lp552
g2
(F0.14642924399737955
F0.14642186877169294
tp553
Rp554
ag2
(F0.34114816887483745
F0.16919437352247424
tp555
Rp556
aa(lp557
g2
(F0.48461450597774425
F-0.18889911825174988
tp558
Rp559
ag2
(F0.346535805133388
F0.25338003250883334
tp560
Rp561
aa(lp562
g2
(F0.1902797390616081
F-0.016009312839435963
tp563
Rp564
ag2
(F0.32697892160624975
F-0.20674629279614387
tp565
Rp566
aa(lp567
g2
(F-0.5293352148844673
F-0.48570040688511906
tp568
Rp569
ag2
(F-0.5059545752971267
F-0.39081958626785807
tp570
Rp571
aa(lp572
g2
(F-0.22909646035869297
F0.4088480491630022
tp573
Rp574
ag2
(F-0.18318440334228903
F0.3211769802560436
tp575
Rp576
aa(lp577
g2
(F-0.03613521768882477
F0.5270642911996484
tp578
Rp579
ag2
(F-0.34617876599296815
F0.4483041081323149
tp580
Rp581
aa(lp582
g2
(F0.6669742724319492
F-0.05873309588410913
tp583
Rp584
ag2
(F0.671526544170659
F-0.028480522470764935
tp585
Rp586
aa(lp587
g2
(F-0.11359966102338637
F0.16566673727636638
tp588
Rp589
ag2
(F0.06318203881883633
F0.10733315023652124
tp590
Rp591
aa(lp592
g2
(F0.7012635381097858
F-0.32500547982116856
tp593
Rp594
ag2
(F0.6532046688312267
F0.01936712967906351
tp595
Rp596
aa(lp597
g2
(F0.2906984160496082
F-0.20718812820657312
tp598
Rp599
ag2
(F0.2707329770357678
F-0.17958197602909953
tp600
Rp601
aa(lp602
g2
(F0.6139324070685348
F0.3271250920557549
tp603
Rp604
ag2
(F0.6468351502757754
F0.3297935042515474
tp605
Rp606
aa(lp607
g2
(F0.16624941161012452
F-0.05780451925429486
tp608
Rp609
ag2
(F0.1303102998139306
F0.19158084703811173
tp610
Rp611
aa(lp612
g2
(F0.3810920666789166
F0.7062522073511768
tp613
Rp614
ag2
(F0.49826399885616324
F0.6982779826810559
tp615
Rp616
aa(lp617
g2
(F-0.6550673856922582
F0.33409283456228533
tp618
Rp619
ag2
(F-0.6471957590100053
F0.2001117450014095
tp620
Rp621
aa(lp622
g2
(F0.03415750980736065
F-0.5264249584385671
tp623
Rp624
ag2
(F0.21784421847510793
F-0.5186701400956568
tp625
Rp626
aa(lp627
g2
(F0.50424305240985
F-0.17694892810812968
tp628
Rp629
ag2
(F0.5628669596024298
F-0.3324907025184864
tp630
Rp631
aa(lp632
g2
(F-0.2683338002636232
F0.06939639190645186
tp633
Rp634
ag2
(F-0.3202936303666638
F0.03480423807443367
tp635
Rp636
aa(lp637
g2
(F0.16843489952511626
F0.6443925316430121
tp638
Rp639
ag2
(F0.2024434054574311
F0.6317848373504427
tp640
Rp641
aa(lp642
g2
(F-0.4614332596898091
F0.42594909006155146
tp643
Rp644
ag2
(F-0.33364998733745926
F0.16100058697471742
tp645
Rp646
aa(lp647
g2
(F-0.6174159250792028
F0.08811583247502752
tp648
Rp649
ag2
(F-0.6233951934614401
F0.16315566955123517
tp650
Rp651
aa(lp652
g2
(F-0.4530674025067569
F-0.33684576810972017
tp653
Rp654
ag2
(F-0.2588241613021169
F-0.1787370290869651
tp655
Rp656
aa(lp657
g2
(F-0.14394603223234648
F-0.5504791943972569
tp658
Rp659
ag2
(F-0.1631969291103701
F-0.5181015517145443
tp660
Rp661
aa(lp662
g2
(F0.23196423839601754
F0.31447269245821485
tp663
Rp664
ag2
(F0.08065449989780915
F0.23269885835390658
tp665
Rp666
aa(lp667
g2
(F0.2525517156636392
F-0.17263648998591863
tp668
Rp669
ag2
(F0.30667541813648547
F-0.2323494447463652
tp670
Rp671
aa(lp672
g2
(F0.5393567751023094
F0.05340491756192933
tp673
Rp674
ag2
(F0.5690394101482443
F-0.028466945289920553
tp675
Rp676
aa(lp677
g2
(F-0.05558467938748446
F-0.1456835643429496
tp678
Rp679
ag2
(F-0.0024537050957723627
F-0.2311104181538905
tp680
Rp681
aa(lp682
g2
(F-0.03433009475311288
F-0.2754004020379938
tp683
Rp684
ag2
(F-0.23774118119531096
F-0.39047027307932713
tp685
Rp686
aa(lp687
g2
(F0.6020922704341143
F0.16057629841052545
tp688
Rp689
ag2
(F0.48210949226750044
F0.29514784171981234
tp690
Rp691
aa(lp692
g2
(F0.5574294053086866
F-0.06407200741014774
tp693
Rp694
ag2
(F0.5840023327885733
F-0.1264062342711274
tp695
Rp696
aa(lp697
g2
(F0.5169164360601701
F0.19129658425971086
tp698
Rp699
ag2
(F0.3799209629422027
F0.34368274571498825
tp700
Rp701
aa(lp702
g2
(F0.29207845862430115
F0.10598546586515833
tp703
Rp704
ag2
(F0.2959319191998071
F0.11926634087577959
tp705
Rp706
aa(lp707
g2
(F0.40236963926926106
F-0.3879874411922684
tp708
Rp709
ag2
(F0.42123715819950935
F-0.5828709219102353
tp710
Rp711
aa(lp712
g2
(F-0.02971968165707306
F0.48101073314651277
tp713
Rp714
ag2
(F0.19996432654733443
F0.5098983085131765
tp715
Rp716
aa(lp717
g2
(F0.6900097331227304
F-0.32163304000334025
tp718
Rp719
ag2
(F0.6905147660107851
F-0.6027900382170687
tp720
Rp721
aa(lp722
g2
(F-0.020357429515452274
F0.16440789407094725
tp723
Rp724
ag2
(F-0.08871173503186813
F0.16386521650257957
tp725
Rp726
aa(lp727
g2
(F-0.12633634412384487
F0.6560676519795887
tp728
Rp729
ag2
(F-0.5724707277564515
F0.6772814070785289
tp730
Rp731
aa(lp732
g2
(F-0.46857351366532396
F-0.3238751799045822
tp733
Rp734
ag2
(F-0.4619451940056948
F-0.32790577410836746
tp735
Rp736
aa(lp737
g2
(F0.48991821779379086
F-0.0840828461437153
tp738
Rp739
ag2
(F0.6052586796936328
F-0.2530076799713407
tp740
Rp741
aa(lp742
g2
(F0.5225176684072279
F0.3063691469889116
tp743
Rp744
ag2
(F0.6096394043592857
F0.25276767027128444
tp745
Rp746
aa(lp747
g2
(F-0.40493256291230545
F0.567690341854201
tp748
Rp749
ag2
(F-0.48590419744075464
F0.6460922562918747
tp750
Rp751
aa(lp752
g2
(F0.25466824754312123
F0.201483877184094
tp753
Rp754
ag2
(F0.32804240403556517
F0.21789067379545357
tp755
Rp756
aa(lp757
g2
(F0.5826496084013333
F-0.1788347549007835
tp758
Rp759
ag2
(F0.6331036657518168
F-0.22479256207388687
tp760
Rp761
aa(lp762
g2
(F-0.3975790855142757
F0.44140285282085756
tp763
Rp764
ag2
(F-0.46745925475874855
F0.4991675774259243
tp765
Rp766
aa(lp767
g2
(F0.15387597454340485
F-0.26018453938023284
tp768
Rp769
ag2
(F0.1894342978921678
F-0.3757002670883889
tp770
Rp771
aa(lp772
g2
(F-0.7015999608363561
F0.28247534487218495
tp773
Rp774
ag2
(F-0.6765111702998475
F-0.03591751282870759
tp775
Rp776
aa(lp777
g2
(F-0.09699866619764463
F0.345301068056167
tp778
Rp779
ag2
(F0.26114824993194097
F0.5142619123207797
tp780
Rp781
aa(lp782
g2
(F-0.010763753132817522
F0.5415044070356616
tp783
Rp784
ag2
(F0.09664142268218112
F0.5523519291861645
tp785
Rp786
aa(lp787
g2
(F-0.5018040833907487
F0.18415755080633578
tp788
Rp789
ag2
(F-0.5544726631783579
F-0.07775503062612077
tp790
Rp791
aa(lp792
g2
(F-0.47843870941498523
F-0.4175334724118392
tp793
Rp794
ag2
(F-0.2891955509867537
F-0.21891382337990395
tp795
Rp796
aa(lp797
g2
(F-0.06442633114574403
F0.546195106338778
tp798
Rp799
ag2
(F0.13207260468098203
F0.5080397409069166
tp800
Rp801
aa(lp802
g2
(F-0.48156054365143003
F-0.1685930179618248
tp803
Rp804
ag2
(F-0.403835849260022
F-0.09609760864085704
tp805
Rp806
aa(lp807
g2
(F-0.2934977198383417
F0.1400486925299569
tp808
Rp809
ag2
(F-0.12495996497673101
F0.09937979459838131
tp810
Rp811
aa(lp812
g2
(F0.39707635428301113
F-0.40200653719397217
tp813
Rp814
ag2
(F-0.09935823206138217
F0.08882978943907283
tp815
Rp816
aa(lp817
g2
(F-0.4996953361353801
F-0.4907579479757502
tp818
Rp819
ag2
(F-0.3909082420799562
F-0.5299403182155351
tp820
Rp821
aa(lp822
g2
(F0.6590270378502834
F-0.5917066579800013
tp823
Rp824
ag2
(F0.6609576141579303
F-0.6128061743003488
tp825
Rp826
aa(lp827
g2
(F0.6475073370814322
F-0.197737346804978
tp828
Rp829
ag2
(F0.6527446946476831
F0.10996965827142746
tp830
Rp831
aa(lp832
g2
(F0.016104032531228607
F0.07034717717910521
tp833
Rp834
ag2
(F0.12183474908764369
F0.08725112701502957
tp835
Rp836
aa(lp837
g2
(F-0.06735331538651479
F-0.05530790184241552
tp838
Rp839
ag2
(F-0.0639387149897992
F0.00961395455084546
tp840
Rp841
aa(lp842
g2
(F0.18903906705434226
F0.07713694619974976
tp843
Rp844
ag2
(F0.2767568697138516
F-0.12500109495663336
tp845
Rp846
aa(lp847
g2
(F-9.241335350407276e-05
F0.6229833200601997
tp848
Rp849
ag2
(F-0.19669547942478494
F0.606705889079542
tp850
Rp851
aa(lp852
g2
(F-0.5675487218128903
F-0.6578758932368286
tp853
Rp854
ag2
(F-0.39860406871301934
F-0.5632912935581458
tp855
Rp856
aa(lp857
g2
(F0.07510599219447411
F-0.6599904740345784
tp858
Rp859
ag2
(F0.38006457864772725
F-0.6731753747394029
tp860
Rp861
aa(lp862
g2
(F0.4196875975008476
F0.2170149578510665
tp863
Rp864
ag2
(F0.6031140801860915
F0.05358495163696386
tp865
Rp866
aa(lp867
g2
(F0.4684042247203486
F0.57391951240535
tp868
Rp869
ag2
(F0.25972859173803386
F0.41643452329664066
tp870
Rp871
aa(lp872
g2
(F-0.3098996027532072
F0.019020806536313883
tp873
Rp874
ag2
(F-0.5823176452354144
F0.26935027588381444
tp875
Rp876
aa(lp877
g2
(F0.5343613418511113
F0.1107620345879875
tp878
Rp879
ag2
(F0.5364690181096898
F0.06566095652239057
tp880
Rp881
aa(lp882
g2
(F-0.10023789479964396
F-0.45038597075082815
tp883
Rp884
ag2
(F-0.09093308776654929
F-0.4661039731541746
tp885
Rp886
aa(lp887
g2
(F0.504312840591681
F-0.058449641751896375
tp888
Rp889
ag2
(F0.4685157110529927
F0.03942301249364921
tp890
Rp891
aa(lp892
g2
(F0.2543073109991434
F-0.3951853983239405
tp893
Rp894
ag2
(F0.23814917806573022
F-0.4284950140170273
tp895
Rp896
aa(lp897
g2
(F-0.33887510005156096
F0.5896310473643547
tp898
Rp899
ag2
(F-0.4166086388782723
F0.5262010906202463
tp900
Rp901
aa(lp902
g2
(F0.2005263903567457
F-0.06695130079527034
tp903
Rp904
ag2
(F0.14706832863481378
F0.0837808358783313
tp905
Rp906
aa(lp907
g2
(F-0.553286681633924
F-0.43016899777681045
tp908
Rp909
ag2
(F-0.5802739408939581
F-0.39851691694473484
tp910
Rp911
aa(lp912
g2
(F0.018025164158375295
F-0.6269792564904275
tp913
Rp914
ag2
(F0.02575864097647229
F-0.6390654104781671
tp915
Rp916
aa(lp917
g2
(F0.2858123069201104
F-0.468826136505027
tp918
Rp919
ag2
(F0.14057886676515385
F-0.49312625684884637
tp920
Rp921
aa(lp922
g2
(F-0.41069379213427715
F0.43904506602407567
tp923
Rp924
ag2
(F-0.09386427366644812
F0.13732400294043456
tp925
Rp926
aa(lp927
g2
(F0.4632311586603264
F-0.25593261470154743
tp928
Rp929
ag2
(F0.4126043343066781
F-0.10646294070712237
tp930
Rp931
aa(lp932
g2
(F-0.11098385041261616
F-0.44854608614281716
tp933
Rp934
ag2
(F-0.030995208469729696
F-0.6417873935955438
tp935
Rp936
aa(lp937
g2
(F-0.3028817847261249
F-0.18193487838675693
tp938
Rp939
ag2
(F-0.13763582883749315
F0.006236940554069315
tp940
Rp941
aa(lp942
g2
(F0.2430871413066753
F0.002459842999461226
tp943
Rp944
ag2
(F0.34134441516406633
F-0.17232015152320057
tp945
Rp946
aa(lp947
g2
(F-0.6921860419627947
F-0.17936713877380173
tp948
Rp949
ag2
(F-0.6557026567288753
F-0.21282550601251649
tp950
Rp951
aa(lp952
g2
(F-0.3539853297289261
F0.11700346642473392
tp953
Rp954
ag2
(F-0.2676093904118301
F0.17352644064177003
tp955
Rp956
aa(lp957
g2
(F-0.6413215037317338
F0.0021216383948791107
tp958
Rp959
ag2
(F-0.6914113481958624
F0.30384363881153087
tp960
Rp961
aa(lp962
g2
(F-0.4130169963784497
F0.011485286031544417
tp963
Rp964
ag2
(F-0.4119796493724724
F0.0414424216103082
tp965
Rp966
aa(lp967
g2
(F0.4400763175231126
F0.4189964355106839
tp968
Rp969
ag2
(F0.5292383417957838
F0.47943596156050505
tp970
Rp971
aa(lp972
g2
(F0.683023127664341
F0.5984357760702053
tp973
Rp974
ag2
(F0.6690875878777645
F0.52081177988531
tp975
Rp976
aa(lp977
g2
(F0.12593721381761946
F-0.1571104125096564
tp978
Rp979
ag2
(F0.25124830346811833
F-0.27586610317304866
tp980
Rp981
aa(lp982
g2
(F0.3682263691693106
F0.09340785485045688
tp983
Rp984
ag2
(F0.4616861680197222
F-0.3316179606579975
tp985
Rp986
aa(lp987
g2
(F0.49370211898120253
F0.6754022979442462
tp988
Rp989
ag2
(F0.26259190650848374
F0.6751296418762844
tp990
Rp991
aa(lp992
g2
(F0.3285352740563807
F-0.03215607169914181
tp993
Rp994
ag2
(F0.3039717129286419
F0.07712246517668575
tp995
Rp996
aa(lp997
g2
(F0.6185422046137159
F-0.39525749298824975
tp998
Rp999
ag2
(F0.5904228465583492
F-0.6425388180580023
tp1000
Rp1001
aa(lp1002
g2
(F-0.6197986525023337
F-0.08812303475063288
tp1003
Rp1004
ag2
(F-0.6577100535760966
F-0.13737265776204277
tp1005
Rp1006
aa(lp1007
g2
(F-0.5782392371655897
F0.5466173875181604
tp1008
Rp1009
ag2
(F-0.018798015015036418
F0.012515808310454957
tp1010
Rp1011
aa(lp1012
g2
(F-0.6502360784049835
F0.6965044347354536
tp1013
Rp1014
ag2
(F-0.5313034490038113
F0.7067113360860067
tp1015
Rp1016
aa(lp1017
g2
(F0.11816435765005284
F-0.5243867824695996
tp1018
Rp1019
ag2
(F0.027385060185372234
F-0.5402430709850896
tp1020
Rp1021
aa(lp1022
g2
(F-0.07927481479745502
F-0.6674510179270986
tp1023
Rp1024
ag2
(F-0.21050172375165538
F-0.5834243811556213
tp1025
Rp1026
aa(lp1027
g2
(F0.6386879213131407
F-0.3162581916786124
tp1028
Rp1029
ag2
(F0.5769484126152606
F-0.4801495866301444
tp1030
Rp1031
aa(lp1032
g2
(F0.5180075949098
F-0.30724570794159645
tp1033
Rp1034
ag2
(F0.440649438135865
F0.05471905389071996
tp1035
Rp1036
aa(lp1037
g2
(F-0.37089640001651214
F0.6253181601127547
tp1038
Rp1039
ag2
(F0.15491200723463838
F0.6727686756884941
tp1040
Rp1041
aa(lp1042
g2
(F-0.37120265777012174
F0.4725306260999609
tp1043
Rp1044
ag2
(F-0.29230841078747744
F0.4760570729202531
tp1045
Rp1046
aa(lp1047
g2
(F-0.5563529323403178
F0.42601923815241083
tp1048
Rp1049
ag2
(F-0.649957120631976
F0.07768418808574562
tp1050
Rp1051
aa(lp1052
g2
(F-0.43701820267092734
F-0.6711975809044611
tp1053
Rp1054
ag2
(F-0.44184205550703803
F-0.6162902423703889
tp1055
Rp1056
aa(lp1057
g2
(F-0.07638420983655592
F-0.32739406537600185
tp1058
Rp1059
ag2
(F-0.10278911392788281
F-0.43615868388790574
tp1060
Rp1061
aa(lp1062
g2
(F0.37944652112273847
F0.27031686021075363
tp1063
Rp1064
ag2
(F0.6140801799655764
F0.13309428940413592
tp1065
Rp1066
aa(lp1067
g2
(F0.14895544302420682
F0.21526602363586678
tp1068
Rp1069
ag2
(F0.2549975238970943
F0.21507777198819988
tp1070
Rp1071
aa(lp1072
g2
(F0.6191637404415216
F-0.6662545612825701
tp1073
Rp1074
ag2
(F0.4259076006452154
F-0.7007244737471977
tp1075
Rp1076
aa(lp1077
g2
(F-0.47636557819557546
F-0.31826332346204567
tp1078
Rp1079
ag2
(F-0.4023151013574679
F-0.1499375071772473
tp1080
Rp1081
aa(lp1082
g2
(F0.039191541546758524
F-0.7054044077213735
tp1083
Rp1084
ag2
(F-0.2620205954777846
F-0.6786152453481198
tp1085
Rp1086
aa(lp1087
g2
(F0.14153911151215648
F-0.24565240936058003
tp1088
Rp1089
ag2
(F0.08539165229384571
F-0.4299868156871963
tp1090
Rp1091
aa(lp1092
g2
(F-0.5422070313890892
F-0.7002444380676577
tp1093
Rp1094
ag2
(F-0.6592439341554082
F-0.6811414907122533
tp1095
Rp1096
aa(lp1097
g2
(F0.23396301121970087
F0.3487705352159429
tp1098
Rp1099
ag2
(F-0.1088851277738393
F0.28311471145944656
tp1100
Rp1101
aa(lp1102
g2
(F0.001346061505595686
F-0.6438980764311103
tp1103
Rp1104
ag2
(F0.04142409712169415
F-0.23363604127012827
tp1105
Rp1106
aa(lp1107
g2
(F-0.04057015478378223
F0.17179025144806714
tp1108
Rp1109
ag2
(F0.04990340762183221
F0.22752026392705316
tp1110
Rp1111
aa(lp1112
g2
(F0.09165805158106
F0.7012288737915384
tp1113
Rp1114
ag2
(F-0.06775102852397652
F0.6991424973160014
tp1115
Rp1116
aa(lp1117
g2
(F-0.4992796535304567
F-0.46263289430068844
tp1118
Rp1119
ag2
(F-0.1659294673439239
F-0.5646123988406274
tp1120
Rp1121
aa(lp1122
g2
(F-0.515620814428291
F0.5363393451662224
tp1123
Rp1124
ag2
(F-0.21044011887517455
F0.23047581218414648
tp1125
Rp1126
aa(lp1127
g2
(F0.32499863305144383
F0.2395381896501998
tp1128
Rp1129
ag2
(F0.4220707951479292
F-0.06484591608001744
tp1130
Rp1131
aa(lp1132
g2
(F0.38893110590826474
F0.5858777091114675
tp1133
Rp1134
ag2
(F0.4861562595614628
F0.668351665856437
tp1135
Rp1136
aa(lp1137
g2
(F0.24039282367287107
F-0.12027694479904127
tp1138
Rp1139
ag2
(F0.23770294618030907
F-0.12209685916815238
tp1140
Rp1141
aa(lp1142
g2
(F-0.39463427394220424
F-0.10901632862991462
tp1143
Rp1144
ag2
(F-0.47941752272138155
F-0.2469324659699113
tp1145
Rp1146
aa(lp1147
g2
(F-0.7045915316752577
F0.28715702824546774
tp1148
Rp1149
ag2
(F-0.7001688034316313
F0.4740414990685937
tp1150
Rp1151
aa(lp1152
g2
(F-0.06962693466758496
F-0.15121589397780089
tp1153
Rp1154
ag2
(F-0.1330699022074333
F-0.20243964413291116
tp1155
Rp1156
aa(lp1157
g2
(F0.3858054723560185
F-0.6672305244098672
tp1158
Rp1159
ag2
(F0.3498733041130959
F-0.6505392945093417
tp1160
Rp1161
aa(lp1162
g2
(F-0.4704904162893365
F0.5161682771092786
tp1163
Rp1164
ag2
(F-0.48460247690560065
F0.5398498314343103
tp1165
Rp1166
aa(lp1167
g2
(F0.4386903241075497
F-0.29537857582924376
tp1168
Rp1169
ag2
(F0.33343592858995064
F-0.10415141845431741
tp1170
Rp1171
aa(lp1172
g2
(F0.3885167561306935
F0.4065798057981682
tp1173
Rp1174
ag2
(F0.26807622550181076
F0.3069252205241557
tp1175
Rp1176
aa(lp1177
g2
(F0.6880753834461417
F-0.5925011702623236
tp1178
Rp1179
ag2
(F0.6685536211387217
F-0.6504164629128124
tp1180
Rp1181
aa(lp1182
g2
(F0.17131891640569552
F0.4697449022082676
tp1183
Rp1184
ag2
(F-0.1904522592247797
F0.2848277866795015
tp1185
Rp1186
aa(lp1187
g2
(F0.534220704743293
F-0.3454288232517299
tp1188
Rp1189
ag2
(F0.4393139716355281
F0.09357903739336382
tp1190
Rp1191
aa(lp1192
g2
(F0.4090281024755631
F0.45309219318273874
tp1193
Rp1194
ag2
(F0.4536184482149437
F0.4729948851263468
tp1195
Rp1196
aa(lp1197
g2
(F-0.4689523052770721
F0.7028430218654274
tp1198
Rp1199
ag2
(F-0.5435109357905649
F0.6896852361551962
tp1200
Rp1201
aa(lp1202
g2
(F-0.5840161715764846
F-0.6495943297023449
tp1203
Rp1204
ag2
(F-0.6229330025361001
F-0.6721985602275321
tp1205
Rp1206
aa(lp1207
g2
(F-0.002371431768946719
F-0.4763860060611983
tp1208
Rp1209
ag2
(F-0.02688827813186845
F-0.5027437440635223
tp1210
Rp1211
aa(lp1212
g2
(F-0.6699757819647588
F0.6903061137384321
tp1213
Rp1214
ag2
(F-0.6607138399393998
F0.6718232841207643
tp1215
Rp1216
aa(lp1217
g2
(F0.6934672054245596
F-0.04073766717513205
tp1218
Rp1219
ag2
(F0.6507149860075123
F0.3533323664803203
tp1220
Rp1221
aa(lp1222
g2
(F0.2997042284753204
F0.09828893793371352
tp1223
Rp1224
ag2
(F0.34305616487746127
F0.16505911231488635
tp1225
Rp1226
aa(lp1227
g2
(F-0.032515971877161154
F-0.6863426066143653
tp1228
Rp1229
ag2
(F0.25113459467147614
F-0.6830532269354589
tp1230
Rp1231
aa(lp1232
g2
(F-0.23256205500021526
F0.519273733932512
tp1233
Rp1234
ag2
(F-0.3064319288846632
F0.4959013279496425
tp1235
Rp1236
aa(lp1237
g2
(F-0.13220546300414748
F-0.17254675561035826
tp1238
Rp1239
ag2
(F0.018008455653080735
F-0.08226083217749325
tp1240
Rp1241
aa(lp1242
g2
(F-0.5719918805625476
F-0.6908180589193134
tp1243
Rp1244
ag2
(F-0.6044685425848207
F-0.6642365027942633
tp1245
Rp1246
aa(lp1247
g2
(F-0.57977333692164
F-0.6766235928142559
tp1248
Rp1249
ag2
(F-0.4859816739692378
F-0.6638891880054535
tp1250
Rp1251
aa(lp1252
g2
(F-0.6190794709847743
F-0.3778800423464327
tp1253
Rp1254
ag2
(F-0.6514885456662811
F-0.42855991833899143
tp1255
Rp1256
aa(lp1257
g2
(F-0.03254579675649083
F0.5664162579904659
tp1258
Rp1259
ag2
(F0.06367996642791907
F0.600351927353403
tp1260
Rp1261
aa(lp1262
g2
(F0.5206356484024217
F-0.24603025459686423
tp1263
Rp1264
ag2
(F0.544057742542464
F-0.36164317506539545
tp1265
Rp1266
aa(lp1267
g2
(F0.6319297542910385
F-0.30507477134401195
tp1268
Rp1269
ag2
(F0.4874989983819349
F-0.08752847810392439
tp1270
Rp1271
aa(lp1272
g2
(F-0.037095769657588096
F-0.6226151547365918
tp1273
Rp1274
ag2
(F-0.012953028995760452
F-0.6434326813376728
tp1275
Rp1276
aa(lp1277
g2
(F-0.27517924579125447
F0.0602915255378631
tp1278
Rp1279
ag2
(F-0.2154861566383166
F-0.0603692856276834
tp1280
Rp1281
aa.