(lp0
(lp1
copenvoronoi
Point
p2
(F-0.5170870448647804
F0.4913455028026006
tp3
Rp4
ag2
(F0.37303364356652313
F-0.34638470564456525
tp5
Rp6
aa(lp7
g2
(F-0.400788976162598
F-0.11014379509498107
tp8
Rp9
ag2
(F-0.6660369055361731
F-0.39358742007813124
tp10
Rp11
aa(lp12
g2
(F-0.08784020745098975
F-0.005922385033731659
tp13
Rp14
ag2
(F-0.37747559045401125
F-0.38061218704111593
tp15
Rp16
aa(lp17
g2
(F0.31322625305842844
F0.29867026496463955
tp18
Rp19
ag2
(F0.6172201970218678
F-0.11015733706849462
tp20
Rp21
aa(lp22
g2
(F0.5409069902993233
F0.48959708439987315
tp23
Rp24
ag2
(F0.007472450724816948
F0.12586820032075363
tp25
Rp26
aa(lp27
g2
(F0.029611394163141624
F-0.15096009241581954
tp28
Rp29
ag2
(F-0.014575563142595227
F-0.6652814660378519
tp30
Rp31
aa(lp32
g2
(F0.38257749328447144
F0.056027532904294075
tp33
Rp34
ag2
(F0.5095266917338452
F-0.37876015202055974
tp35
Rp36
aa(lp37
g2
(F0.006675749058638991
F-0.02131911073879067
tp38
Rp39
ag2
(F-0.20252957440845543
F-0.2176786944732152
tp40
Rp41
aa(lp42
g2
(F-0.6675441792880061
F-0.38239623196548156
tp43
Rp44
ag2
(F-0.4564922153903935
F0.11944570894471318
tp45
Rp46
aa(lp47
g2
(F-0.49997860154502494
F0.3094800935080513
tp48
Rp49
ag2
(F-0.4805107466232278
F0.28935605384616425
tp50
Rp51
aa(lp52
g2
(F-0.148636659890796
F0.10726238922611486
tp53
Rp54
ag2
(F-0.2527966007551498
F0.1851882413736894
tp55
Rp56
aa(lp57
g2
(F-0.2738106673816148
F0.507015935775585
tp58
Rp59
ag2
(F-0.268186330116436
F0.6212476585193294
tp60
Rp61
aa(lp62
g2
(F-0.5594286290038062
F0.23469938726962936
tp63
Rp64
ag2
(F-0.288396791464299
F-0.00028295268624445313
tp65
Rp66
aa(lp67
g2
(F0.36644561982793467
F0.14171668664256898
tp68
Rp69
ag2
(F0.48243377772933305
F-0.1865234560090514
tp70
Rp71
aa(lp72
g2
(F0.46353417244242
F-0.6895963502076652
tp73
Rp74
ag2
(F0.2409984510938713
F-0.5774472657415526
tp75
Rp76
aa(lp77
g2
(F0.5846245972528443
F0.6644163078874086
tp78
Rp79
ag2
(F0.6643925882143804
F-0.5496166918678983
tp80
Rp81
aa(lp82
g2
(F-0.36048585996731325
F-0.6782935538376822
tp83
Rp84
ag2
(F-0.36237907341533937
F-0.6048202018525988
tp85
Rp86
aa(lp87
g2
(F-0.29582300035306736
F0.4132116473158369
tp88
Rp89
ag2
(F-0.00953032473900739
F0.5128631027568042
tp90
Rp91
aa(lp92
g2
(F0.5930602709070245
F-0.29204995783352705
tp93
Rp94
ag2
(F0.5568590320051097
F-0.5067400886356002
tp95
Rp96
aa(lp97
g2
(F0.040590389811494654
F0.0012722541788059427
tp98
Rp99
ag2
(F0.2104909701065174
F-0.08723299789994676
tp100
Rp101
aa(lp102
g2
(F0.27231667087069633
F0.49354797856832455
tp103
Rp104
ag2
(F-0.1815647546711402
F0.28465667175479503
tp105
Rp106
aa(lp107
g2
(F-0.47404699953003676
F0.3251222539560794
tp108
Rp109
ag2
(F-0.6495360034487941
F0.6805493469326582
tp110
Rp111
aa(lp112
g2
(F-0.7014372613053793
F-0.43863431142104997
tp113
Rp114
ag2
(F-0.08658795461885171
F-0.677359261228424
tp115
Rp116
aa(lp117
g2
(F0.18034983107287816
F0.1493798976178079
tp118
Rp119
ag2
(F0.4742315585209995
F-0.4149220345794034
tp120
Rp121
aa(lp122
g2
(F-0.3043647609732549
F0.05987699719369355
tp123
Rp124
ag2
(F-0.32070729459917446
F0.12125196036034014
tp125
Rp126
aa(lp127
g2
(F-0.554174845570392
F0.4349400932871883
tp128
Rp129
ag2
(F-0.5401284213799313
F0.34968584839919736
tp130
Rp131
aa(lp132
g2
(F0.06404561655051988
F0.6575319897316427
tp133
Rp134
ag2
(F0.3692025968342605
F0.6696581014050984
tp135
Rp136
aa(lp137
g2
(F-0.37884818637572876
F0.08633020534338665
tp138
Rp139
ag2
(F-0.46334872863377186
F0.4097933050437472
tp140
Rp141
aa(lp142
g2
(F0.40363345894101554
F-0.43854639789794064
tp143
Rp144
ag2
(F0.17803040316872443
F-0.4728712570635486
tp145
Rp146
aa(lp147
g2
(F0.15027419793273766
F-0.3366054109334302
tp148
Rp149
ag2
(F0.037607223707090576
F-0.5110688625508678
tp150
Rp151
aa(lp152
g2
(F-0.10731083994392077
F0.2296480103471169
tp153
Rp154
ag2
(F0.30200028500300635
F0.34405420333300807
tp155
Rp156
aa(lp157
g2
(F0.0014946221693408202
F0.03695113382448645
tp158
Rp159
ag2
(F-0.4967333228507379
F0.5860755595107143
tp160
Rp161
aa(lp162
g2
(F0.44636721939206536
F0.6016675790853052
tp163
Rp164
ag2
(F0.5972072887512732
F0.4261982577235093
tp165
Rp166
aa(lp167
g2
(F0.10177844350166254
F0.07265777698816955
tp168
Rp169
ag2
(F0.036242353324222765
F0.059454345848629075
tp170
Rp171
aa(lp172
g2
(F-0.05039600596001337
F0.4184764042743152
tp173
Rp174
ag2
(F-0.18012409667286544
F0.3526536802613671
tp175
Rp176
aa(lp177
g2
(F-0.02627554898469786
F-0.23116550279621428
tp178
Rp179
ag2
(F-0.06201568629591059
F-0.5423375282729842
tp180
Rp181
aa(lp182
g2
(F0.5728673131902238
F-0.5428359240037797
tp183
Rp184
ag2
(F0.5004571633577575
F-0.557441023549742
tp185
Rp186
aa(lp187
g2
(F0.6915038253545236
F0.2224308501448854
tp188
Rp189
ag2
(F0.6021903033402662
F0.6628210824125633
tp190
Rp191
aa(lp192
g2
(F0.19569622267969944
F-0.364780835895541
tp193
Rp194
ag2
(F0.25405524250930334
F-0.32013101339721756
tp195
Rp196
aa(lp197
g2
(F0.42930263374070377
F0.19967700340450667
tp198
Rp199
ag2
(F0.4855356895859668
F0.15013343780322264
tp200
Rp201
aa(lp202
g2
(F0.39153129454798896
F0.5887960329752466
tp203
Rp204
ag2
(F-0.2634700292244548
F0.5370653285324563
tp205
Rp206
aa(lp207
g2
(F-0.2569340187289975
F0.049056630833365644
tp208
Rp209
ag2
(F-0.07256966610809679
F0.0022445178054731896
tp210
Rp211
aa(lp212
g2
(F0.3483877085238358
F-0.1659874559295741
tp213
Rp214
ag2
(F0.2579687228911317
F0.12870107696854594
tp215
Rp216
aa(lp217
g2
(F0.6146768463111596
F0.07380932019161646
tp218
Rp219
ag2
(F0.5796259868611804
F-0.032305727787385385
tp220
Rp221
aa(lp222
g2
(F-0.6289097273619995
F0.6539086860906287
tp223
Rp224
ag2
(F-0.23345077300438455
F0.6562173867536685
tp225
Rp226
aa(lp227
g2
(F-0.6941274671024124
F0.3743590441966591
tp228
Rp229
ag2
(F-0.5873876725526893
F0.4484278134155193
tp230
Rp231
aa(lp232
g2
(F-0.5181899203810121
F-0.4125989440342532
tp233
Rp234
ag2
(F-0.4757504914696119
F-0.19391443436322275
tp235
Rp236
aa(lp237
g2
(F0.5325367327120145
F-0.623111447562646
tp238
Rp239
ag2
(F0.21839728944328773
F0.013493410576695064
tp240
Rp241
aa(lp242
g2
(F0.1657767948909903
F-0.2713058363047356
tp243
Rp244
ag2
(F0.07691428651821508
F-0.10266192087364234
tp245
Rp246
aa(lp247
g2
(F-0.0854712857706229
F0.4453836135600129
tp248
Rp249
ag2
(F-0.0815155731325512
F0.47419105483084745
tp250
Rp251
aa(lp252
g2
(F0.010566784915965743
F-0.47490424686176264
tp253
Rp254
ag2
(F0.058028706846303124
F-0.10294434252886375
tp255
Rp256
aa(lp257
g2
(F-0.5608732674361583
F-0.5615111839484139
tp258
Rp259
ag2
(F-0.6327432878262023
F-0.4925656141157423
tp260
Rp261
aa(lp262
g2
(F0.15748477955529683
F-0.1630706960645888
tp263
Rp264
ag2
(F0.2980490348576359
F-0.29178207278635654
tp265
Rp266
aa(lp267
g2
(F-0.25841399663149583
F-0.5132348603001295
tp268
Rp269
ag2
(F-0.19993208136494622
F-0.4608199625812565
tp270
Rp271
aa(lp272
g2
(F-0.5500017092339862
F0.21807383795730317
tp273
Rp274
ag2
(F-0.5833528232540777
F0.017493085634740835
tp275
Rp276
aa(lp277
g2
(F-0.32722340181111215
F0.7011515249446887
tp278
Rp279
ag2
(F-0.2522427372739294
F0.6661622026040144
tp280
Rp281
aa(lp282
g2
(F0.17325806365000218
F-0.6155023046239911
tp283
Rp284
ag2
(F-0.053786677656268767
F-0.6901713277049264
tp285
Rp286
aa(lp287
g2
(F-0.35621182340362767
F0.5035882961113736
tp288
Rp289
ag2
(F-0.33254828578019896
F0.6124921638135405
tp290
Rp291
aa(lp292
g2
(F0.6659601656930518
F-0.6676636795713475
tp293
Rp294
ag2
(F0.1169733910164743
F-0.5233349968852468
tp295
Rp296
aa(lp297
g2
(F-0.4984352899838169
F-0.36532267823302395
tp298
Rp299
ag2
(F-0.47908544937935693
F-0.3399262249872956
tp300
Rp301
aa(lp302
g2
(F-0.6946036106512257
F-0.5113971308222227
tp303
Rp304
ag2
(F-0.684511519881481
F-0.5131841228745584
tp305
Rp306
aa(lp307
g2
(F0.44828717659687034
F0.11642496072725517
tp308
Rp309
ag2
(F0.49020122797493926
F-0.08050717926681084
tp310
Rp311
aa(lp312
g2
(F0.13153625538824465
F0.669129281404333
tp313
Rp314
ag2
(F0.1073311844660324
F0.6656216716735657
tp315
Rp316
aa(lp317
g2
(F-0.3167685473904481
F-0.39704464867200306
tp318
Rp319
ag2
(F-0.10445990609505718
F-0.5059962434450802
tp320
Rp321
aa(lp322
g2
(F0.23598765890006557
F0.4569736701022884
tp323
Rp324
ag2
(F0.23527128377003437
F0.42062544505204014
tp325
Rp326
aa(lp327
g2
(F-0.14248250481897595
F-0.6930578608292058
tp328
Rp329
ag2
(F0.004633459068257184
F-0.7032413385388484
tp330
Rp331
aa(lp332
g2
(F-0.3979748489300717
F-0.4684931175970112
tp333
Rp334
ag2
(F-0.2516325515841696
F-0.47686850861471947
tp335
Rp336
aa(lp337
g2
(F0.32077839077144543
F0.2913211278022937
tp338
Rp339
ag2
(F0.5854379265677452
F0.09678118055743445
tp340
Rp341
aa(lp342
g2
(F0.49082636014424796
F-0.5163692748732667
tp343
Rp344
ag2
(F0.48251052132226313
F-0.4547005855099925
tp345
Rp346
aa(lp347
g2
(F0.04005049219343071
F-0.45462311955994184
tp348
Rp349
ag2
(F0.05763102198226888
F-0.1276192377727613
tp350
Rp351
aa(lp352
g2
(F-0.5855817608660396
F-0.14944382797947386
tp353
Rp354
ag2
(F-0.6932348911015728
F-0.4078980472040427
tp355
Rp356
aa(lp357
g2
(F-0.10453175224153499
F-0.19797604607694463
tp358
Rp359
ag2
(F-0.07364864273404692
F-0.2936261260741546
tp360
Rp361
aa(lp362
g2
(F0.5934339428898263
F0.6984701773789288
tp363
Rp364
ag2
(F0.20158450531014926
F0.5988388679281662
tp365
Rp366
aa(lp367
g2
(F-0.11158266389111116
F0.6231881882590529
tp368
Rp369
ag2
(F0.46998295510403487
F0.6749051218047726
tp370
Rp371
aa(lp372
g2
(F0.6510489306772638
F-0.3198342241326157
tp373
Rp374
ag2
(F0.5932532263975114
F0.6856925207573081
tp375
Rp376
aa(lp377
g2
(F0.5753753756245243
F0.6929265902072703
tp378
Rp379
ag2
(F0.2525062042380133
F0.46885462152572677
tp380
Rp381
aa(lp382
g2
(F-0.5091646703000732
F-0.5072528449425502
tp383
Rp384
ag2
(F-0.5009511131728949
F-0.3720115636330085
tp385
Rp386
aa(lp387
g2
(F-0.4531497580765787
F-0.03516587503824453
tp388
Rp389
ag2
(F-0.38027731486320376
F-0.05702530883846768
tp390
Rp391
aa(lp392
g2
(F0.5255251039250424
F-0.2799219956096964
tp393
Rp394
ag2
(F0.44794626509012914
F0.09468225853181145
tp395
Rp396
aa(lp397
g2
(F-0.13925854095111845
F-0.05052493164295191
tp398
Rp399
ag2
(F-0.4181546253495782
F-0.30347309414379847
tp400
Rp401
aa(lp402
g2
(F0.1159710777547941
F-0.06870854660070025
tp403
Rp404
ag2
(F0.24586072529470449
F-0.17806998467510637
tp405
Rp406
aa(lp407
g2
(F0.36098599259568753
F-0.16443459971324637
tp408
Rp409
ag2
(F0.4944403556304231
F-0.4401189439096515
tp410
Rp411
aa(lp412
g2
(F0.3582643526902576
F0.551232503576822
tp413
Rp414
ag2
(F0.18810760292135353
F0.4620374142453776
tp415
Rp416
aa(lp417
g2
(F-0.6817773580341666
F0.2020727052296094
tp418
Rp419
ag2
(F-0.631254718737139
F-0.08376048666342206
tp420
Rp421
aa(lp422
g2
(F-0.4580578634124902
F-0.43975425880579855
tp423
Rp424
ag2
(F-0.17497570960849185
F-0.3056588090110015
tp425
Rp426
aa(lp427
g2
(F-0.2087672887222749
F0.3013055763804555
tp428
Rp429
ag2
(F-0.188754566755292
F0.2495732328998137
tp430
Rp431
aa(lp432
g2
(F-0.7039496047499274
F-0.7038763140324549
tp433
Rp434
ag2
(F-0.45389210348237236
F-0.5528468477644868
tp435
Rp436
aa(lp437
g2
(F0.14495022143379288
F-0.6981706315071985
tp438
Rp439
ag2
(F0.2765515537106381
F-0.689406423879395
tp440
Rp441
aa(lp442
g2
(F-0.16450379148292793
F-0.574922275925982
tp443
Rp444
ag2
(F-0.08157314207748245
F-0.5348704757040854
tp445
Rp446
aa(lp447
g2
(F0.2329389608125253
F0.42554804257131074
tp448
Rp449
ag2
(F0.22921907131204855
F0.4071753543668595
tp450
Rp451
aa(lp452
g2
(F0.2887078720282531
F-0.6243021537534729
tp453
Rp454
ag2
(F0.2316712467507751
F-0.6258305814188266
tp455
Rp456
aa(lp457
g2
(F-0.641462679340573
F0.17023155731868989
tp458
Rp459
ag2
(F-0.6028800277735077
F0.290361972890651
tp460
Rp461
aa(lp462
g2
(F-0.6294124683425009
F-0.183356362507075
tp463
Rp464
ag2
(F-0.545010258189301
F0.00575806504029952
tp465
Rp466
aa(lp467
g2
(F0.027579020663471954
F-0.30324021732855216
tp468
Rp469
ag2
(F0.02357725836803304
F-0.25075896387458474
tp470
Rp471
aa(lp472
g2
(F-0.29082886424472565
F0.6378086290937104
tp473
Rp474
ag2
(F0.1768913664548244
F0.6877518998474559
tp475
Rp476
aa(lp477
g2
(F0.5253023975268396
F0.36165082198479404
tp478
Rp479
ag2
(F0.48519944240889656
F0.29589839913167637
tp480
Rp481
aa(lp482
g2
(F0.4172373094972366
F-0.5638829038137233
tp483
Rp484
ag2
(F0.37394450235499543
F-0.5135862680745216
tp485
Rp486
aa(lp487
g2
(F0.3835645245075445
F-0.19108944469544464
tp488
Rp489
ag2
(F0.32874670537983985
F0.1185562332455754
tp490
Rp491
aa(lp492
g2
(F0.4061032114445573
F0.4649635904798699
tp493
Rp494
ag2
(F0.1391311796771264
F0.3469813609546577
tp495
Rp496
aa(lp497
g2
(F-0.25175398033514296
F-0.4017799942952039
tp498
Rp499
ag2
(F-0.10111592767891475
F-0.37658786692707386
tp500
Rp501
aa(lp502
g2
(F-0.5262979683174025
F0.3451123237027245
tp503
Rp504
ag2
(F-0.4815065092601307
F0.233292634264617
tp505
Rp506
aa(lp507
g2
(F-0.3215474892148035
F-0.20196052578698986
tp508
Rp509
ag2
(F-0.4103183515199879
F-0.22213666679699384
tp510
Rp511
aa(lp512
g2
(F-0.17166032512481377
F0.23319486370356923
tp513
Rp514
ag2
(F0.3111749407769395
F0.36842308456512307
tp515
Rp516
aa(lp517
g2
(F-0.4310289960231889
F0.09156143897451774
tp518
Rp519
ag2
(F-0.32883840882771687
F-0.16863865220965069
tp520
Rp521
aa(lp522
g2
(F0.025308511544797963
F-0.6627863336245141
tp523
Rp524
ag2
(F0.03616494742327836
F-0.5980600226176711
tp525
Rp526
aa(lp527
g2
(F-0.691854402276708
F-0.17110445672295638
tp528
Rp529
ag2
(F-0.6109528483765675
F-0.09148291792691565
tp530
Rp531
aa(lp532
g2
(F-0.24391561020408498
F-0.0368051519805912
tp533
Rp534
ag2
(F-0.3406920679255542
F-0.05502159498098713
tp535
Rp536
aa(lp537
g2
(F-0.401786698690712
F0.09402956851894417
tp538
Rp539
ag2
(F-0.3161116431460663
F-0.21084281337358624
tp540
Rp541
aa(lp542
g2
(F-0.006201599381005174
F0.027387275847143844
tp543
Rp544
ag2
(F-0.6158598987515906
F0.6181163743800817
tp545
Rp546
aa(lp547
g2
(F-0.5020548404512698
F-0.36213836398589927
tp548
Rp549
ag2
(F-0.4026328926951916
F-0.20781662454586858
tp550
Rp551
aa(lp552
g2
(F0.14642924399737955
F0.14642186877169294
tp553
Rp554
ag2
(F0.34114816887483745
F0.16919437352247424
tp555
Rp556
aa(lp557
g2
(F0.48461450597774425
F-0.18889911825174988
tp558
Rp559
ag2
(F0.346535805133388
F0.25338003250883334
tp560
Rp561
aa(lp562
g2
(F0.1902797390616081
F-0.016009312839435963
tp563
Rp564
ag2
(F0.32697892160624975
F-0.20674629279614387
tp565
Rp566
aa(lp567
g2
(F-0.5293352148844673
F-0.48570040688511906
tp568
Rp569
ag2
(F-0.5059545752971267
F-0.39081958626785807
tp570
Rp571
aa(lp572
g2
(F-0.22909646035869297
F0.4088480491630022
tp573
Rp574
ag2
(F-0.18318440334228903
F0.3211769802560436
tp575
Rp576
aa(lp577
g2
(F-0.03613521768882477
F0.5270642911996484
tp578
Rp579
ag2
(F-0.34617876599296815
F0.4483041081323149
tp580
Rp581
aa(lp582
g2
(F0.6669742724319492
F-0.05873309588410913
tp583
Rp584
ag2
(F0.671526544170659
F-0.028480522470764935
tp585
Rp586
aa(lp587
g2
(F-0.11359966102338637
F0.16566673727636638
tp588
Rp589
ag2
(F0.06318203881883633
F0.10733315023652124
tp590
Rp591
aa(lp592
g2
(F0.7012635381097858
F-0.32500547982116856
tp593
Rp594
ag2
(F0.6532046688312267
F0.01936712967906351
tp595
Rp596
aa(lp597
g2
(F0.2906984160496082
F-0.20718812820657312
tp598
Rp599
ag2
(F0.2707329770357678
F-0.17958197602909953
tp600
Rp601
aa(lp602
g2
(F0.6139324070685348
F0.3271250920557549
tp603
Rp604
ag2
(F0.6468351502757754
F0.3297935042515474
tp605
Rp606
aa(lp607
g2
(F0.16624941161012452
F-0.05780451925429486
tp608
Rp609
ag2
(F0.1303102998139306
F0.19158084703811173
tp610
Rp611
aa(lp612
g2
(F0.3810920666789166
F0.7062522073511768
tp613
Rp614
ag2
(F0.49826399885616324
F0.6982779826810559
tp615
Rp616
aa(lp617
g2
(F-0.6550673856922582
F0.33409283456228533
tp618
Rp619
ag2
(F-0.6471957590100053
F0.2001117450014095
tp620
Rp621
aa(lp622
g2
(F0.03415750980736065
F-0.5264249584385671
tp623
Rp624
ag2
(F0.21784421847510793
F-0.5186701400956568
tp625
Rp626
aa(lp627
g2
(F0.50424305240985
F-0.17694892810812968
tp628
Rp629
ag2
(F0.5628669596024298
F-0.3324907025184864
tp630
Rp631
aa(lp632
g2
(F-0.2683338002636232
F0.06939639190645186
tp633
Rp634
ag2
(F-0.3202936303666638
F0.03480423807443367
tp635
Rp636
aa(lp637
g2
(F0.16843489952511626
F0.6443925316430121
tp638
Rp639
ag2
(F0.2024434054574311
F0.6317848373504427
tp640
Rp641
aa.